Certificate:
    Data:
        Version: 3 (0x2)
        Serial Number: 268435670 (0x100000d6)
    Signature Algorithm: sha256WithRSAEncryption
        Issuer: C=DE, ST=Hessen, O=privacyidea, CN=CA001
        Validity
            Not Before: May  7 12:49:47 2019 GMT
            Not After : May  6 12:49:47 2020 GMT
        Subject: OU=realm1, CN=cornelius/emailAddress=user@localhost.localdomain
        Subject Public Key Info:
            Public Key Algorithm: rsaEncryption
                Public-Key: (2048 bit)
                Modulus:
                    00:a6:06:f7:a1:35:fd:5a:c9:d5:a0:40:0a:db:c9:
                    b9:7a:64:bc:d0:9b:fe:a4:b3:32:1b:78:ea:67:b7:
                    c1:fd:4d:a7:a9:90:9d:f4:ac:ce:d4:a0:99:02:56:
                    70:a5:ff:fc:1d:c5:5a:9d:04:f5:ea:4a:ad:6a:ea:
                    f0:60:d8:5a:8d:c7:11:f9:c1:d9:bd:2a:50:72:1a:
                    24:e8:36:c9:5f:e0:fa:74:97:2a:59:76:ab:59:2b:
                    67:0e:11:96:2f:8a:30:83:04:1e:dd:91:d5:d9:a1:
                    c5:ec:00:4a:14:a9:c1:d0:66:a9:0e:8a:c0:8f:ab:
                    d2:81:b0:f9:30:55:e1:a5:be:1d:29:89:e5:3d:98:
                    74:4a:ed:5e:a9:83:6b:61:81:33:5e:1a:ac:18:cf:
                    1d:a1:37:a3:0d:b0:25:bf:dc:09:3b:c6:1d:42:4f:
                    fd:36:72:2b:5c:4d:2a:f9:87:a8:d4:92:10:5b:c2:
                    2f:09:f0:3b:97:a2:77:d3:96:7b:d0:9b:5c:3b:cd:
                    6c:dd:7f:41:47:dd:12:47:31:cd:56:2d:4d:d7:c9:
                    22:ce:ae:c6:45:ab:52:b3:b9:7d:45:2a:af:21:c5:
                    e7:a4:7b:59:70:18:2b:4b:76:c4:29:51:a4:fd:17:
                    c7:87:8a:4c:2c:f0:e8:ee:d3:7f:a0:e3:ab:cd:34:
                    62:6b
                Exponent: 65537 (0x10001)
        X509v3 extensions:
            X509v3 Key Usage: 
                Digital Signature, Key Encipherment
            X509v3 Basic Constraints: 
                CA:FALSE
            Netscape Cert Type: 
                SSL Server
            Netscape Comment: 
                OpenSSL Generated Server Certificate
            X509v3 Subject Key Identifier: 
                05:8C:1C:B8:29:AD:14:48:1A:55:CD:AE:BC:A9:B4:75:C6:D0:15:23
            X509v3 Authority Key Identifier: 
                keyid:F4:A7:C0:CC:91:46:AF:64:F3:91:F2:27:F8:C8:B2:6F:8A:87:32:73
                DirName:/C=DE/ST=Hessen/O=privacyidea/CN=CA001
                serial:FB:C8:EB:AC:83:CD:12:07

            X509v3 Extended Key Usage: 
                TLS Web Server Authentication
    Signature Algorithm: sha256WithRSAEncryption
         4d:9b:77:85:6f:ae:59:76:d8:f4:52:64:e7:72:33:4d:63:1f:
         7d:52:2c:83:36:fd:e5:9f:06:52:a7:11:ad:0a:03:c7:56:9e:
         d5:5a:7a:74:80:c6:02:3c:75:40:6e:eb:d1:ca:12:41:64:42:
         10:54:8f:89:72:a3:f6:9c:93:21:8f:4b:8c:94:c9:45:65:19:
         d7:52:15:a7:4d:cd:0f:25:bb:5a:22:bc:0b:7f:62:d5:7b:3c:
         b8:d9:83:f7:8e:b6:3a:7f:3a:96:d5:0e:1b:43:dd:6a:ca:60:
         3e:23:39:a9:a7:3a:a5:a0:15:0e:1e:8d:85:e8:56:39:a7:0f:
         64:59:1d:d2:2f:1f:1e:69:a7:1e:6e:73:ad:88:ca:26:de:34:
         5d:bc:ff:1e:89:7c:12:d8:99:58:18:4e:cf:ac:07:c4:ea:17:
         d5:28:3d:7c:e4:f8:8f:7a:08:a7:d0:16:b5:97:ec:15:f4:e9:
         19:32:ae:c0:22:1a:10:31:3f:cd:2c:d4:cc:ae:26:ff:3e:8a:
         60:1a:47:87:39:3d:44:d5:c4:06:5c:4e:45:0b:7c:2a:7e:f0:
         c1:07:38:12:71:32:9b:bf:cb:16:b9:68:23:ed:aa:6d:4f:61:
         3c:ee:2d:56:a5:c7:6f:da:00:d7:6c:1e:2f:89:95:39:9f:7c:
         d8:5d:89:db
-----BEGIN CERTIFICATE-----
MIIEIjCCAwqgAwIBAgIEEAAA1jANBgkqhkiG9w0BAQsFADBEMQswCQYDVQQGEwJE
RTEPMA0GA1UECAwGSGVzc2VuMRQwEgYDVQQKDAtwcml2YWN5aWRlYTEOMAwGA1UE
AwwFQ0EwMDEwHhcNMTkwNTA3MTI0OTQ3WhcNMjAwNTA2MTI0OTQ3WjBQMQ8wDQYD
VQQLDAZyZWFsbTExEjAQBgNVBAMMCWNvcm5lbGl1czEpMCcGCSqGSIb3DQEJARYa
dXNlckBsb2NhbGhvc3QubG9jYWxkb21haW4wggEiMA0GCSqGSIb3DQEBAQUAA4IB
DwAwggEKAoIBAQCmBvehNf1aydWgQArbybl6ZLzQm/6kszIbeOpnt8H9TaepkJ30
rM7UoJkCVnCl//wdxVqdBPXqSq1q6vBg2FqNxxH5wdm9KlByGiToNslf4Pp0lypZ
dqtZK2cOEZYvijCDBB7dkdXZocXsAEoUqcHQZqkOisCPq9KBsPkwVeGlvh0pieU9
mHRK7V6pg2thgTNeGqwYzx2hN6MNsCW/3Ak7xh1CT/02citcTSr5h6jUkhBbwi8J
8DuXonfTlnvQm1w7zWzdf0FH3RJHMc1WLU3XySLOrsZFq1KzuX1FKq8hxeeke1lw
GCtLdsQpUaT9F8eHikws8Oju03+g46vNNGJrAgMBAAGjggEOMIIBCjALBgNVHQ8E
BAMCBaAwCQYDVR0TBAIwADARBglghkgBhvhCAQEEBAMCBkAwMwYJYIZIAYb4QgEN
BCYWJE9wZW5TU0wgR2VuZXJhdGVkIFNlcnZlciBDZXJ0aWZpY2F0ZTAdBgNVHQ4E
FgQUBYwcuCmtFEgaVc2uvKm0dcbQFSMwdAYDVR0jBG0wa4AU9KfAzJFGr2TzkfIn
+Miyb4qHMnOhSKRGMEQxCzAJBgNVBAYTAkRFMQ8wDQYDVQQIDAZIZXNzZW4xFDAS
BgNVBAoMC3ByaXZhY3lpZGVhMQ4wDAYDVQQDDAVDQTAwMYIJAPvI66yDzRIHMBMG
A1UdJQQMMAoGCCsGAQUFBwMBMA0GCSqGSIb3DQEBCwUAA4IBAQBNm3eFb65Zdtj0
UmTncjNNYx99UiyDNv3lnwZSpxGtCgPHVp7VWnp0gMYCPHVAbuvRyhJBZEIQVI+J
cqP2nJMhj0uMlMlFZRnXUhWnTc0PJbtaIrwLf2LVezy42YP3jrY6fzqW1Q4bQ91q
ymA+IzmppzqloBUOHo2F6FY5pw9kWR3SLx8eaacebnOtiMom3jRdvP8eiXwS2JlY
GE7PrAfE6hfVKD185PiPegin0Ba1l+wV9OkZMq7AIhoQMT/NLNTMrib/PopgGkeH
OT1E1cQGXE5FC3wqfvDBBzgScTKbv8sWuWgj7aptT2E87i1Wpcdv2gDXbB4viZU5
n3zYXYnb
-----END CERTIFICATE-----
