Certificate:
    Data:
        Version: 3 (0x2)
        Serial Number: 268435665 (0x100000d1)
    Signature Algorithm: sha256WithRSAEncryption
        Issuer: C=DE, ST=Hessen, O=privacyidea, CN=CA001
        Validity
            Not Before: May  7 12:47:42 2019 GMT
            Not After : May  6 12:47:42 2020 GMT
        Subject: C=DE, ST=Hessen, O=privacyidea, CN=requester.localdomain
        Subject Public Key Info:
            Public Key Algorithm: rsaEncryption
                Public-Key: (2048 bit)
                Modulus:
                    00:cd:be:14:4f:fa:ce:01:3f:42:22:1b:1d:9c:af:
                    dd:92:d2:7f:db:6c:b7:3e:39:43:43:6b:13:03:f1:
                    05:f4:07:74:bc:76:69:28:0b:af:19:8e:d7:fc:e3:
                    cd:c6:58:f2:ca:7f:08:6d:53:fc:07:02:44:24:c6:
                    b4:34:4c:8c:04:fe:33:0e:40:e2:20:ba:02:73:5a:
                    f7:f5:4f:63:6e:cc:c6:b6:df:54:1d:37:39:7d:51:
                    36:26:5f:bd:dc:3f:a8:8b:6b:a2:ae:b6:9d:d6:21:
                    e7:df:41:b8:7a:28:2a:68:48:ca:a8:2d:ed:e1:e9:
                    46:5e:5a:72:6d:b4:84:38:87:91:fd:94:11:0b:28:
                    84:c6:c2:2f:2a:fb:01:f9:36:7a:09:75:d1:33:88:
                    3c:73:41:5b:c8:bf:94:89:70:a1:f0:c0:b9:2e:50:
                    53:1e:b1:17:64:69:f4:2d:81:e0:a9:0d:0e:32:e9:
                    ba:55:8a:85:f1:1b:6f:49:79:b4:7f:88:c3:0d:3e:
                    54:88:9b:3d:1f:38:8c:04:f3:ee:6a:63:2b:f5:c6:
                    db:b4:83:aa:c4:78:41:3a:7d:4b:e1:c8:3e:71:ca:
                    1b:61:59:ea:c6:c4:ca:32:5e:c9:e9:bf:12:29:e6:
                    c6:c3:63:fe:a0:55:da:7a:f1:60:98:4d:26:ed:fa:
                    70:2d
                Exponent: 65537 (0x10001)
        X509v3 extensions:
            X509v3 Key Usage: 
                Digital Signature, Key Encipherment
            X509v3 Basic Constraints: 
                CA:FALSE
            Netscape Cert Type: 
                SSL Server
            Netscape Comment: 
                OpenSSL Generated Server Certificate
            X509v3 Subject Key Identifier: 
                53:3F:ED:5D:09:07:B3:65:7B:AB:45:C9:24:5B:09:77:80:0A:96:ED
            X509v3 Authority Key Identifier: 
                keyid:F4:A7:C0:CC:91:46:AF:64:F3:91:F2:27:F8:C8:B2:6F:8A:87:32:73
                DirName:/C=DE/ST=Hessen/O=privacyidea/CN=CA001
                serial:FB:C8:EB:AC:83:CD:12:07

            X509v3 Extended Key Usage: 
                TLS Web Server Authentication
    Signature Algorithm: sha256WithRSAEncryption
         3e:f7:a7:8d:13:b0:ae:29:c7:62:6e:53:d3:b9:80:00:9e:3a:
         08:02:b3:d1:b6:0f:91:43:5f:b1:ea:ed:07:c6:20:f2:a8:1c:
         1d:dd:4a:3d:56:79:5e:5b:f3:e3:67:83:31:6e:99:19:14:5b:
         5b:86:36:65:7a:16:2e:0f:d9:5f:89:ae:67:64:04:71:7c:aa:
         c8:c7:69:a6:b4:ab:2c:51:e1:55:67:b5:0c:90:1d:6a:3c:01:
         6c:de:ce:35:c2:81:f9:10:c2:5b:fa:3c:a9:be:37:ef:cf:de:
         ba:cc:c8:db:1f:cc:c1:5c:f5:2e:21:d1:4e:af:a8:fb:b9:62:
         ff:90:a7:c0:07:08:fd:41:15:f9:da:79:2c:fb:85:4c:3f:1f:
         32:92:fd:c3:60:0d:be:7c:73:b7:e2:57:e5:43:d8:ed:79:7e:
         d3:aa:45:4a:0c:a2:f4:d0:cd:68:70:34:5e:d3:88:03:40:72:
         a0:7a:e3:70:c9:3d:af:10:b5:da:6c:7d:93:0d:a5:f7:a8:ec:
         2d:d3:7b:ce:56:91:19:3c:8a:64:29:d9:d7:68:6d:df:93:e1:
         18:89:f1:f2:75:e3:bb:02:bf:e1:57:12:ba:b1:1a:6e:9a:7d:
         d9:63:bf:45:7e:44:f7:2d:34:30:62:7e:b8:34:42:42:92:23:
         ae:77:5f:4d
-----BEGIN CERTIFICATE-----
MIIEJjCCAw6gAwIBAgIEEAAA0TANBgkqhkiG9w0BAQsFADBEMQswCQYDVQQGEwJE
RTEPMA0GA1UECAwGSGVzc2VuMRQwEgYDVQQKDAtwcml2YWN5aWRlYTEOMAwGA1UE
AwwFQ0EwMDEwHhcNMTkwNTA3MTI0NzQyWhcNMjAwNTA2MTI0NzQyWjBUMQswCQYD
VQQGEwJERTEPMA0GA1UECAwGSGVzc2VuMRQwEgYDVQQKDAtwcml2YWN5aWRlYTEe
MBwGA1UEAwwVcmVxdWVzdGVyLmxvY2FsZG9tYWluMIIBIjANBgkqhkiG9w0BAQEF
AAOCAQ8AMIIBCgKCAQEAzb4UT/rOAT9CIhsdnK/dktJ/22y3PjlDQ2sTA/EF9Ad0
vHZpKAuvGY7X/OPNxljyyn8IbVP8BwJEJMa0NEyMBP4zDkDiILoCc1r39U9jbszG
tt9UHTc5fVE2Jl+93D+oi2uirrad1iHn30G4eigqaEjKqC3t4elGXlpybbSEOIeR
/ZQRCyiExsIvKvsB+TZ6CXXRM4g8c0FbyL+UiXCh8MC5LlBTHrEXZGn0LYHgqQ0O
Mum6VYqF8RtvSXm0f4jDDT5UiJs9HziMBPPuamMr9cbbtIOqxHhBOn1L4cg+ccob
YVnqxsTKMl7J6b8SKebGw2P+oFXaevFgmE0m7fpwLQIDAQABo4IBDjCCAQowCwYD
VR0PBAQDAgWgMAkGA1UdEwQCMAAwEQYJYIZIAYb4QgEBBAQDAgZAMDMGCWCGSAGG
+EIBDQQmFiRPcGVuU1NMIEdlbmVyYXRlZCBTZXJ2ZXIgQ2VydGlmaWNhdGUwHQYD
VR0OBBYEFFM/7V0JB7Nle6tFySRbCXeACpbtMHQGA1UdIwRtMGuAFPSnwMyRRq9k
85HyJ/jIsm+KhzJzoUikRjBEMQswCQYDVQQGEwJERTEPMA0GA1UECAwGSGVzc2Vu
MRQwEgYDVQQKDAtwcml2YWN5aWRlYTEOMAwGA1UEAwwFQ0EwMDGCCQD7yOusg80S
BzATBgNVHSUEDDAKBggrBgEFBQcDATANBgkqhkiG9w0BAQsFAAOCAQEAPvenjROw
rinHYm5T07mAAJ46CAKz0bYPkUNfsertB8Yg8qgcHd1KPVZ5Xlvz42eDMW6ZGRRb
W4Y2ZXoWLg/ZX4muZ2QEcXyqyMdpprSrLFHhVWe1DJAdajwBbN7ONcKB+RDCW/o8
qb4378/euszI2x/MwVz1LiHRTq+o+7li/5CnwAcI/UEV+dp5LPuFTD8fMpL9w2AN
vnxzt+JX5UPY7Xl+06pFSgyi9NDNaHA0XtOIA0ByoHrjcMk9rxC12mx9kw2l96js
LdN7zlaRGTyKZCnZ12ht35PhGInx8nXjuwK/4VcSurEabpp92WO/RX5E9y00MGJ+
uDRCQpIjrndfTQ==
-----END CERTIFICATE-----
