(dp1
S'AuiMDIClientWindow'
p2
S''
sS'AuiToolBarEvent'
p3
S':ref:`wx.aui.AuiToolBarEvent`  is used for the events generated by :ref:`wx.aui.AuiToolBar`.'
p4
sS'AuiTabArt'
p5
S'Tab art provider defines all the drawing functions used by :ref:`wx.aui.AuiNotebook`.'
p6
sS'AuiManager'
p7
V:ref:`wx.aui.AuiManager`  is the central class of the ``AUI`` class framework.
p8
sS'AuiSimpleTabArt'
p9
S'Another standard tab art provider for :ref:`wx.aui.AuiNotebook`.'
p10
sS'AuiDefaultToolBarArt'
p11
S':ref:`wx.aui.AuiDefaultToolBarArt`  is part of the ``AUI`` class framework.'
p12
sS'__module_docstring'
p13
S'`wx.aui` provides a set of classes for implementing an "Advanced User Interface".\nMore specifically, these classes enable to you present some of your application in\nfloating or dockable panels, notebooks with floatable tabs, etc.\n\nThere is also a pure-python implementation of these classes available in the\n`wx.lib.agw.aui` package.\n'
p14
sS'AuiTabContainer'
p15
V:ref:`wx.aui.AuiTabContainer`  is a class which contains information about each tab.
p16
sS'AuiTabContainerButton'
p17
S'A simple class which holds information about :ref:`wx.aui.AuiNotebook`  tab buttons and their state.'
p18
sS'AuiToolBarArt'
p19
S':ref:`wx.aui.AuiToolBarArt`  is part of the ``AUI`` class framework.'
p20
sS'AuiDockInfo'
p21
S''
sS'AuiToolBar'
p22
S':ref:`wx.aui.AuiToolBar`  is a dockable toolbar, part of the ``AUI`` class framework.'
p23
sS'AuiMDIChildFrame'
p24
S''
sS'AuiPaneInfo'
p25
V:ref:`wx.aui.AuiPaneInfo`  is part of the ``AUI`` class framework.
p26
sS'AuiPaneButton'
p27
S''
sS'AuiTabCtrl'
p28
S''
sS'AuiDefaultTabArt'
p29
S'Default art provider for :ref:`wx.aui.AuiNotebook`.'
p30
sS'AuiDockUIPart'
p31
S''
sS'AuiDockArt'
p32
V:ref:`wx.aui.AuiDockArt`  is part of the ``AUI`` class framework.
p33
sS'AuiNotebookEvent'
p34
VThis class is used by the events generated by :ref:`wx.aui.AuiNotebook`.
p35
sS'AuiDefaultDockArt'
p36
VThis is the default art provider for :ref:`wx.aui.AuiManager`.
p37
sS'AuiNotebook'
p38
S':ref:`wx.aui.AuiNotebook`  is part of the ``AUI`` class framework, which represents a notebook control, managing multiple windows with associated tabs.'
p39
sS'AuiMDIParentFrame'
p40
S''
sS'AuiNotebookPage'
p41
S"A simple class which holds information about the notebook's pages and their state."
p42
sS'AuiManagerEvent'
p43
S'Event used to indicate various actions taken with :ref:`wx.aui.AuiManager`.'
p44
sS'AuiToolBarItem'
p45
S':ref:`wx.aui.AuiToolBarItem`  is part of the ``AUI`` class framework, representing a toolbar element.'
p46
s.