(dp1
S'DataViewProgressRenderer'
p2
S'This class is used by :ref:`wx.dataview.DataViewCtrl`  to render progress bars.'
p3
sS'DataViewListStore'
p4
S':ref:`wx.dataview.DataViewListStore`  is a specialised :ref:`wx.dataview.DataViewModel`  for storing a simple table of data.'
p5
sS'DataViewListModel'
p6
S'Base class with abstract API for :ref:`wx.dataview.DataViewIndexListModel`  and :ref:`wx.dataview.DataViewVirtualListModel`.'
p7
sS'__module_docstring'
p8
S'The classes in this module provide views and data models for viewing tabular\nor hierarchical data in a more advanced way than what is provided by classes\nsuch as :ref:`wx.ListCtrl`, :ref:`wx.TreeCtrl`, etc.\n'
p9
sS'DataViewItemObjectMapper'
p10
S'This class provides a mechanism for mapping between Python objects and the'
p11
sS'PyDataViewModel'
p12
S'A convenience class that is a :class:`DataViewModel` combined with an object mapper.'
p13
sS'DataViewTextRenderer'
p14
S':ref:`wx.dataview.DataViewTextRenderer`  is used for rendering text.'
p15
sS'DataViewToggleRenderer'
p16
S'This class is used by :ref:`wx.dataview.DataViewCtrl`  to render toggle controls.'
p17
sS'DataViewColumn'
p18
S'This class represents a column in a :ref:`wx.dataview.DataViewCtrl`.'
p19
sS'DataViewIconText'
p20
S':ref:`wx.dataview.DataViewIconText`  is used by :ref:`wx.dataview.DataViewIconTextRenderer`  for data transfer.'
p21
sS'DataViewIndexListModel'
p22
S':ref:`wx.dataview.DataViewIndexListModel`  is a specialized data model which lets you address an item by its position (row) rather than its :ref:`wx.dataview.DataViewItem`  (which you can obtain from this class).'
p23
sS'DataViewVirtualListModel'
p24
S':ref:`wx.dataview.DataViewVirtualListModel`  is a specialized data model which lets you address an item by its position (row) rather than its :ref:`wx.dataview.DataViewItem`  and as such offers the exact same interface as :ref:`wx.dataview.DataViewIndexListModel`.'
p25
sS'DataViewChoiceRenderer'
p26
VA :ref:`wx.dataview.DataViewCtrl`  renderer using :ref:`wx.Choice`  control and values of strings in it.
p27
sS'DataViewSpinRenderer'
p28
VThis is a specialized renderer for rendering integer values.
p29
sS'DataViewModel'
p30
V:ref:`wx.dataview.DataViewModel`  is the base class for all data model to be displayed by a :ref:`wx.dataview.DataViewCtrl`.
p31
sS'TreeListItem'
p32
S'Unique identifier of an item in :ref:`wx.dataview.TreeListCtrl`.'
p33
sS'DataViewIconTextRenderer'
p34
S'The :ref:`wx.dataview.DataViewIconTextRenderer`  class is used to display text with a small icon next to it as it is typically done in a file manager.'
p35
sS'DataViewEvent'
p36
S'This is the event class for the :ref:`wx.dataview.DataViewCtrl`  notifications.'
p37
sS'DataViewCustomRenderer'
p38
S'You need to derive a new class from :ref:`wx.dataview.DataViewCustomRenderer`  in order to write a new renderer.'
p39
sS'DataViewTreeCtrl'
p40
VThis class is a :ref:`wx.dataview.DataViewCtrl`  which internally uses a :ref:`wx.dataview.DataViewTreeStore`  and forwards most of its API to that class.
p41
sS'TreeListItemComparator'
p42
S'Class defining sort order for the items in :ref:`wx.dataview.TreeListCtrl`.'
p43
sS'DataViewCtrl'
p44
V:ref:`wx.dataview.DataViewCtrl`  is a control to display data either in a tree like fashion or in a tabular form or both.
p45
sS'TreeListEvent'
p46
S'Event generated by :ref:`wx.dataview.TreeListCtrl`.'
p47
sS'DataViewItem'
p48
S':ref:`wx.dataview.DataViewItem`  is a small opaque class that represents an item in a :ref:`wx.dataview.DataViewCtrl`  in a persistent way, i.e.'
p49
sS'DataViewTreeStore'
p50
V:ref:`wx.dataview.DataViewTreeStore`  is a specialised :ref:`wx.dataview.DataViewModel`  for storing simple trees very much like :ref:`wx.TreeCtrl`  does and it offers a similar API.
p51
sS'DataViewModelNotifier'
p52
S'A :ref:`wx.dataview.DataViewModelNotifier`  instance is owned by a :ref:`wx.dataview.DataViewModel`  and mirrors its notification interface.'
p53
sS'DataViewDateRenderer'
p54
S'This class is used by :ref:`wx.dataview.DataViewCtrl`  to render calendar controls.'
p55
sS'DataViewBitmapRenderer'
p56
S'This class is used by :ref:`wx.dataview.DataViewCtrl`  to render bitmap controls.'
p57
sS'DataViewRenderer'
p58
S'This class is used by :ref:`wx.dataview.DataViewCtrl`  to render the individual cells.'
p59
sS'DataViewItemAttr'
p60
S'This class is used to indicate to a :ref:`wx.dataview.DataViewCtrl`  that a certain item (see :ref:`wx.dataview.DataViewItem`) has extra font attributes for its renderer.'
p61
sS'DataViewListCtrl'
p62
S'This class is a :ref:`wx.dataview.DataViewCtrl`  which internally uses a :ref:`wx.dataview.DataViewListStore`  and forwards most of its API to that class.'
p63
sS'TreeListCtrl'
p64
VA control combining :ref:`wx.TreeCtrl`  and :ref:`wx.ListCtrl`  features.
p65
s.