(dp1
S'GridEditorCreatedEvent'
p2
S'====================================='
p3
sS'GridTableBase'
p4
S'The almost abstract base class for grid tables.'
p5
sS'GridHeaderLabelsRenderer'
p6
S'Common base class for row and column headers renderers.'
p7
sS'GridCellAttrProvider'
p8
S'Class providing attributes to be used for the grid cells.'
p9
sS'__module_docstring'
p10
S'The Grid and related classes in this module provide functionality similar to a\nspreadsheet, where the application can display rows and columns of data of\nvarious types, which the user can edit and otherwise interact with.\n'
p11
sS'GridCellEditor'
p12
S'This class is responsible for providing and manipulating the in-place edit controls for the grid.'
p13
sS'GridRowHeaderRendererDefault'
p14
S'Default row header renderer.'
p15
sS'GridStringTable'
p16
S'Simplest type of data table for a grid for small tables of strings that are stored in memory.'
p17
sS'GridCellChoiceEditor'
p18
S'Grid cell editor for string data providing the user a choice from a list of strings.'
p19
sS'GridCellBoolEditor'
p20
S'Grid cell editor for boolean data.'
p21
sS'GridCellFloatRenderer'
p22
S'This class may be used to format floating point data in a cell.'
p23
sS'GridUpdateLocker'
p24
S'This small class can be used to prevent :ref:`wx.grid.Grid`  from redrawing during its lifetime by calling :meth:`wx.grid.Grid.BeginBatch`   in its constructor and :meth:`wx.grid.Grid.EndBatch`   in its destructor.'
p25
sS'GridCellNumberEditor'
p26
S'Grid cell editor for numeric integer data.'
p27
sS'GridCornerHeaderRendererDefault'
p28
S'Default corner window renderer.'
p29
sS'GridColumnHeaderRendererDefault'
p30
S'Default column header renderer.'
p31
sS'GridCornerHeaderRenderer'
p32
S'Base class for corner window renderer.'
p33
sS'GridCellCoords'
p34
S'Represents coordinates of a grid cell.'
p35
sS'GridEvent'
p36
S'This event class contains information about various grid events.'
p37
sS'GridCellFloatEditor'
p38
S'The editor for floating point numbers data.'
p39
sS'GridCellDateTimeRenderer'
p40
VThis class may be used to format a date/time data in a cell.
p41
sS'GridCellNumberRenderer'
p42
S'This class may be used to format integer data in a cell.'
p43
sS'GridCellBoolRenderer'
p44
S'This class may be used to format boolean data in a cell.'
p45
sS'GridCellEnumEditor'
p46
S'Grid cell editor which displays an enum number as a textual equivalent (eg.'
p47
sS'GridCellAttr'
p48
S"This class can be used to alter the cells' appearance in the grid by changing their attributes from the defaults."
p49
sS'GridCellEnumRenderer'
p50
S'This class may be used to render in a cell a number as a textual equivalent.'
p51
sS'GridSizesInfo'
p52
S':ref:`wx.grid.GridSizesInfo`  stores information about sizes of all :ref:`wx.grid.Grid`  rows or columns.'
p53
sS'Grid'
p54
S':ref:`wx.grid.Grid`  and its related classes are used for displaying and editing tabular data.'
p55
sS'GridSizeEvent'
p56
S'This event class contains information about a row/column resize event.'
p57
sS'GridCellAutoWrapStringRenderer'
p58
S'This class may be used to format string data in a cell.'
p59
sS'GridRangeSelectEvent'
p60
S'====================================='
p61
sS'GridColumnHeaderRenderer'
p62
S'Base class for column headers renderer.'
p63
sS'GridCellAutoWrapStringEditor'
p64
S'Grid cell editor for wrappable string/text data.'
p65
sS'GridTableMessage'
p66
S'A simple class used to pass messages from the table to the grid.'
p67
sS'GridRowHeaderRenderer'
p68
S'Base class for row headers renderer.'
p69
sS'GridCellStringRenderer'
p70
S'This class may be used to format string data in a cell; it is the default for string cells.'
p71
sS'GridCellTextEditor'
p72
S'Grid cell editor for string/text data.'
p73
sS'GridCellRenderer'
p74
S'This class is responsible for actually drawing the cell in the grid.'
p75
s.