(dp1
S'__module_docstring'
p2
S'The classes in this module enable loading widgets and layout from XML.\n'
p3
sS'XmlResource'
p4
S'This is the main class for interacting with the XML-based resource system.'
p5
sS'XmlSubclassFactory'
p6
S''
sS'XmlResourceHandler'
p7
V:ref:`SizerXmlHandler`  is a class for resource handlers capable of creating a :ref:`wx.Sizer`  object from an ``XML`` node.
p8
s.