(dp1
S'XRCID'
p2
S'\n.. function:: wx.xrc.XRCID(str_id, value_if_not_found=ID_NONE)\n\n   Returns a numeric ID that is equivalent to the string ID used in an XML resource.\n\n\n'
p3
sS'XRCCTRL'
p4
S'\n.. function:: wx.xrc.XRCCTRL(window, str_id, *ignoreargs)\n\n   Returns the child window associated with the string ID in an XML resource.\n\n\n'
p5
sS'EmptyXmlResource'
p6
S'\n.. function:: wx.xrc.EmptyXmlResource(flags=XRC_USE_LOCALE, domain="")\n\n   A compatibility wrapper for the XmlResource(flags, domain) constructor\n\n\n'
p7
s.