(dp1
S'__module_docstring'
p2
S'These classes enable viewing and interacting with an OpenGL context in a wx.Window.\n'
p3
sS'GLCanvas'
p4
S':ref:`wx.glcanvas.GLCanvas`  is a class for displaying OpenGL graphics.'
p5
sS'GLContext'
p6
S'An instance of a :ref:`wx.glcanvas.GLContext`  represents the state of an OpenGL state machine and the connection between OpenGL and the system.'
p7
s.