(dp1
S'__module_docstring'
p2
S'The ``wx.media`` module provides a widget class that allows displaying various\ntypes of media, such as video and audio files and streaming, using native\nsystem components.  The wxWidgets media classes are an optional part of the\nbuild so it may not always be available on your build of wxPython.\n'
p3
sS'MediaEvent'
p4
S'Event :ref:`wx.media.MediaCtrl`  uses.'
p5
sS'MediaCtrl'
p6
V:ref:`wx.media.MediaCtrl`  is a class for displaying types of media, such as videos, audio files, natively through native codecs.
p7
s.