(dp1
S'PGEditor'
p2
VBase class for custom :ref:`wx.propgrid.PropertyGrid`  editors.
p3
sS'PGChoiceAndButtonEditor'
p4
S''
sS'PGComboBoxEditor'
p5
S''
sS'LongStringProperty'
p6
S'Like :ref:`wx.propgrid.StringProperty`, but has a button that triggers a small text editor dialog.'
p7
sS'DateProperty'
p8
VProperty representing :ref:`wx.DateTime`.
p9
sS'PGArrayEditorDialog'
p10
S''
sS'PGTextCtrlEditor'
p11
S''
sS'PGWindowList'
p12
S'Contains a list of editor windows returned by CreateControls.'
p13
sS'__module_docstring'
p14
S''
sS'PropertyGridIterator'
p15
S''
sS'PGCellRenderer'
p16
VBase class for :ref:`wx.propgrid.PropertyGrid`  cell renderers.
p17
sS'ColourProperty'
p18
S''
sS'PGCellData'
p19
S''
sS'PropertyGridIteratorBase'
p20
V====================================
p21
sS'PGChoicesData'
p22
S''
sS'EditEnumProperty'
p23
S':ref:`wx.propgrid.EnumProperty`  with :ref:`String`  value and writable combo box editor.'
p24
sS'EnumProperty'
p25
S'You can derive custom properties with choices from this class.'
p26
sS'StringProperty'
p27
VBasic property with string value.
p28
sS'UIntProperty'
p29
VBasic property with  integer value.
p30
sS'PGEditorDialogAdapter'
p31
S'Derive a class from this to adapt an existing editor dialog or function to be used when editor button of a property is pushed.'
p32
sS'PropertyGridHitTestResult'
p33
V=========================================
p34
sS'MultiChoiceProperty'
p35
VProperty that manages a value resulting from :ref:`wx.MultiChoiceDialog`.
p36
sS'PGMultiButton'
p37
S'This class can be used to have multiple buttons in a property editor.'
p38
sS'PGTextCtrlAndButtonEditor'
p39
S''
sS'PGPropArgCls'
p40
S'Most property grid functions have this type as their argument, as it can convey a property by either a pointer or name.'
p41
sS'PGCheckBoxEditor'
p42
S''
sS'PropertyGridPageState'
p43
VContains low-level property page information (properties, column widths, etc) of a single :ref:`wx.propgrid.PropertyGrid`  or single :ref:`wx.propgrid.PropertyGridPage`.
p44
sS'ColourPropertyValue'
p45
S'Because text, background and other colours tend to differ between platforms, :ref:`wx.propgrid.SystemColourProperty`  must be able to select between system colour and, when necessary, to pick a custom one.'
p46
sS'PGInDialogValidator'
p47
VCreates and manages a temporary :ref:`wx.TextCtrl`  for validation purposes.
p48
sS'PGProperty'
p49
V:ref:`wx.propgrid.PGProperty`  is base class for all :ref:`wx.propgrid.PropertyGrid`  properties.
p50
sS'FlagsProperty'
p51
S'Represents a bit set that fits in a long integer.'
p52
sS'PropertyGridInterface'
p53
VMost of the shared property manipulation interface shared by :ref:`wx.propgrid.PropertyGrid`, :ref:`wx.propgrid.PropertyGridPage`, and :ref:`wx.propgrid.PropertyGridManager`  is defined in this class.
p54
sS'ImageFileProperty'
p55
S'Property representing image file(name).'
p56
sS'FloatProperty'
p57
S'Basic property with double-precision floating point value.'
p58
sS'PropertyCategory'
p59
S'Category (caption) property.'
p60
sS'PGChoices'
p61
VHelper class for managing choices of :ref:`wx.propgrid.PropertyGrid`  properties.
p62
sS'PGPaintData'
p63
S"Contains information relayed to property's OnCustomPaint."
p64
sS'PGChoiceEditor'
p65
S''
sS'PGDefaultRenderer'
p66
S'Default cell renderer, that can handles the common scenarios.'
p67
sS'FileProperty'
p68
VLike :ref:`wx.propgrid.LongStringProperty`, but the button triggers file selector instead.
p69
sS'SystemColourProperty'
p70
S'Has dropdown list of wxWidgets system colours.'
p71
sS'DirProperty'
p72
S'Like :ref:`wx.propgrid.LongStringProperty`, but the button triggers dir selector instead.'
p73
sS'PGVIterator'
p74
V===========================
p75
sS'IntProperty'
p76
S'Basic property with integer value.'
p77
sS'PGLongStringDialogAdapter'
p78
S''
sS'NumericPropertyValidator'
p79
S'A more comprehensive numeric validator class.'
p80
sS'PGSpinCtrlEditor'
p81
S''
sS'PropertyGridPage'
p82
VHolder of property grid page information.
p83
sS'CursorProperty'
p84
VProperty representing :ref:`wx.Cursor`.
p85
sS'PGCell'
p86
VBase class for :ref:`wx.propgrid.PropertyGrid`  cell information.
p87
sS'FontProperty'
p88
VProperty representing :ref:`wx.Font`.
p89
sS'PropertyGridManager'
p90
V:ref:`wx.propgrid.PropertyGridManager`  is an efficient multi-page version of :ref:`wx.propgrid.PropertyGrid`, which can optionally have toolbar for mode and page selection, a help text box, and a header.
p91
sS'BoolProperty'
p92
S'Basic property with boolean value.'
p93
sS'ArrayStringProperty'
p94
S'Property that manages a list of strings.'
p95
sS'PGFileDialogAdapter'
p96
S''
sS'PropertyGridEvent'
p97
S'A property grid event holds information about events associated with :ref:`wx.propgrid.PropertyGrid`  objects.'
p98
sS'PGValidationInfo'
p99
S'Used to convey validation information to and from functions that actually perform validation.'
p100
sS'PGChoiceEntry'
p101
S'Data of a single :ref:`wx.propgrid.PGChoices`  choice.'
p102
sS'PropertyGrid'
p103
V:ref:`wx.propgrid.PropertyGrid`  is a specialized grid for editing properties - in other words name = value pairs.
p104
sS'PGArrayStringEditorDialog'
p105
S''
s.