(dp1
S'__module_docstring'
p2
S'The :ref:`wx.stc.StyledTextCrtl` class provided by this module is a text widget\nprimarily intended for use as a syntax highlighting source code editor.  It is\nbased on the popular Scintilla widget.\n'
p3
sS'StyledTextCtrl'
p4
S'A wxWidgets implementation of the Scintilla source code editing component.'
p5
sS'StyledTextEvent'
p6
S'The type of events sent from :ref:`wx.stc.StyledTextCtrl`.'
p7
s.