(dp1
S'__module_docstring'
p2
S'The :ref:`wx.webkit.wxWebKitCtrl` and related classes are provided mainly for\nbackwards compatibility only. New code would be more future-proof by using the\n``wx.html2`` module.  The classes in this module are light wrappers around\nthe OSX WebKit control and is not implemented on any other platform.\n'
p3
sS'WebKitNewWindowEvent'
p4
S''
sS'WebKitStateChangedEvent'
p5
S''
sS'WebKitCtrl'
p6
VThis control is a native wrapper around the Safari web browsing engine.
p7
sS'WebKitBeforeLoadEvent'
p8
S''
s.