(dp1
S'__module_docstring'
p2
S'Some simple XML classes for use with XRC.\n\nFor more advanced XML needs it would be better to use one of the XML packages\nprovided by Python.\n'
p3
sS'XmlDocument'
p4
S'This class holds ``XML`` data/document as parsed by ``XML`` parser in the root node.'
p5
sS'XmlNode'
p6
S'Represents a node in an ``XML`` document.'
p7
sS'XmlAttribute'
p8
S'Represents a node attribute.'
p9
s.