Certificate:
    Data:
        Version: 3 (0x2)
        Serial Number: 268435679 (0x100000df)
    Signature Algorithm: sha256WithRSAEncryption
        Issuer: C=DE, ST=Hessen, O=privacyidea, CN=CA001
        Validity
            Not Before: May  7 13:27:54 2019 GMT
            Not After : May  6 13:27:54 2020 GMT
        Subject: CN=selfservice,CN=user,O=realm1/emailAddress=meine
        Subject Public Key Info:
            Public Key Algorithm: rsaEncryption
                Public-Key: (2048 bit)
                Modulus:
                    00:cf:3c:d4:33:0e:12:c4:e6:da:cd:b6:56:a1:1c:
                    26:bb:26:1c:8a:4a:73:a8:58:8a:b6:1e:b3:8b:99:
                    d2:1d:07:c2:92:89:79:c0:69:d8:c8:df:28:61:98:
                    1e:b3:fe:ae:2b:bd:78:a9:f7:6e:47:dc:a3:a0:16:
                    8c:85:02:c1:4e:92:fd:72:6e:f0:c8:03:29:9b:b8:
                    00:6e:c0:83:95:c8:34:20:36:9c:b3:e5:e4:e6:76:
                    73:a3:1a:ad:40:96:e0:53:54:00:ec:76:79:9a:c6:
                    0d:7e:b6:bd:29:ec:83:f3:cb:89:a4:cb:6c:00:ba:
                    0c:c5:78:0f:ff:69:b8:94:f4:04:70:43:3f:d8:9e:
                    d7:a7:fb:5d:ce:75:8e:da:e7:c4:07:b1:9d:de:6f:
                    88:4b:b6:4d:9a:cf:f9:bc:fa:9f:cd:32:6d:f6:3a:
                    0b:0d:23:42:78:ec:97:42:bf:0e:4d:60:56:e1:d3:
                    02:f2:19:cb:84:57:90:e5:70:a1:a2:83:35:86:e2:
                    da:86:9f:f9:8a:c4:79:b3:52:28:da:cb:bb:34:ca:
                    d3:da:91:4a:cf:8d:76:a2:b2:6b:9b:f9:96:fd:09:
                    2a:da:11:23:4d:f0:cb:d6:b2:b1:0e:12:6c:9a:19:
                    65:98:87:ca:e4:ee:24:ce:44:ac:90:8f:9d:1b:c5:
                    2a:9d
                Exponent: 65537 (0x10001)
        X509v3 extensions:
            X509v3 Key Usage: 
                Digital Signature, Key Encipherment
            X509v3 Basic Constraints: 
                CA:FALSE
            Netscape Cert Type: 
                SSL Server
            Netscape Comment: 
                OpenSSL Generated Server Certificate
            X509v3 Subject Key Identifier: 
                4D:07:90:AD:FF:1D:0D:E7:1A:DD:D6:2E:FA:BA:34:CB:AA:1F:24:C6
            X509v3 Authority Key Identifier: 
                keyid:F4:A7:C0:CC:91:46:AF:64:F3:91:F2:27:F8:C8:B2:6F:8A:87:32:73
                DirName:/C=DE/ST=Hessen/O=privacyidea/CN=CA001
                serial:FB:C8:EB:AC:83:CD:12:07

            X509v3 Extended Key Usage: 
                TLS Web Server Authentication
    Signature Algorithm: sha256WithRSAEncryption
         23:06:3f:b4:02:30:23:7d:f7:f0:c2:41:ee:6d:c1:14:41:6e:
         ba:f7:fc:7c:db:67:00:d1:7e:42:91:7e:47:a6:23:9b:8b:e0:
         e0:46:1a:6d:c0:c4:31:9b:c5:0a:7f:35:60:84:ea:88:75:c4:
         5b:b6:19:51:24:44:44:8e:9a:62:da:36:d2:6c:ca:8d:c9:31:
         4e:c2:43:b9:b4:70:ca:65:23:3d:7a:21:dc:68:f2:f6:44:e6:
         5f:21:9e:f9:dc:c8:13:87:1f:a0:21:e7:fa:8f:94:1e:9c:74:
         72:de:03:8e:42:82:80:04:0d:6c:9d:60:4b:33:9f:3c:41:fb:
         c6:10:d3:f6:83:35:1f:44:c4:c1:5f:79:30:37:95:be:a3:62:
         be:f3:fe:37:14:ab:12:b2:0f:98:50:e1:67:f6:c4:69:f5:0e:
         05:fe:14:95:5a:7c:e2:86:b3:d5:c9:74:68:24:14:98:9c:a6:
         76:a0:6e:bb:7e:bd:f2:ec:f0:db:95:21:da:f5:e8:77:59:c3:
         c7:ab:41:94:02:be:9c:a2:36:4b:90:13:e7:23:b6:76:ec:04:
         2d:28:2b:0c:ca:e0:61:0b:50:15:86:87:9c:97:01:97:d6:3b:
         fd:ad:35:48:68:20:63:a2:2c:68:60:12:34:77:95:38:13:3b:
         65:18:69:00
-----BEGIN CERTIFICATE-----
MIIEDzCCAvegAwIBAgIEEAAA3zANBgkqhkiG9w0BAQsFADBEMQswCQYDVQQGEwJE
RTEPMA0GA1UECAwGSGVzc2VuMRQwEgYDVQQKDAtwcml2YWN5aWRlYTEOMAwGA1UE
AwwFQ0EwMDEwHhcNMTkwNTA3MTMyNzU0WhcNMjAwNTA2MTMyNzU0WjA9MSUwIwYD
VQQDDBxzZWxmc2VydmljZSxDTj11c2VyLE89cmVhbG0xMRQwEgYJKoZIhvcNAQkB
FgVtZWluZTCCASIwDQYJKoZIhvcNAQEBBQADggEPADCCAQoCggEBAM881DMOEsTm
2s22VqEcJrsmHIpKc6hYirYes4uZ0h0HwpKJecBp2MjfKGGYHrP+riu9eKn3bkfc
o6AWjIUCwU6S/XJu8MgDKZu4AG7Ag5XINCA2nLPl5OZ2c6MarUCW4FNUAOx2eZrG
DX62vSnsg/PLiaTLbAC6DMV4D/9puJT0BHBDP9ie16f7Xc51jtrnxAexnd5viEu2
TZrP+bz6n80ybfY6Cw0jQnjsl0K/Dk1gVuHTAvIZy4RXkOVwoaKDNYbi2oaf+YrE
ebNSKNrLuzTK09qRSs+NdqKya5v5lv0JKtoRI03wy9aysQ4SbJoZZZiHyuTuJM5E
rJCPnRvFKp0CAwEAAaOCAQ4wggEKMAsGA1UdDwQEAwIFoDAJBgNVHRMEAjAAMBEG
CWCGSAGG+EIBAQQEAwIGQDAzBglghkgBhvhCAQ0EJhYkT3BlblNTTCBHZW5lcmF0
ZWQgU2VydmVyIENlcnRpZmljYXRlMB0GA1UdDgQWBBRNB5Ct/x0N5xrd1i76ujTL
qh8kxjB0BgNVHSMEbTBrgBT0p8DMkUavZPOR8if4yLJviocyc6FIpEYwRDELMAkG
A1UEBhMCREUxDzANBgNVBAgMBkhlc3NlbjEUMBIGA1UECgwLcHJpdmFjeWlkZWEx
DjAMBgNVBAMMBUNBMDAxggkA+8jrrIPNEgcwEwYDVR0lBAwwCgYIKwYBBQUHAwEw
DQYJKoZIhvcNAQELBQADggEBACMGP7QCMCN99/DCQe5twRRBbrr3/HzbZwDRfkKR
fkemI5uL4OBGGm3AxDGbxQp/NWCE6oh1xFu2GVEkRESOmmLaNtJsyo3JMU7CQ7m0
cMplIz16Idxo8vZE5l8hnvncyBOHH6Ah5/qPlB6cdHLeA45CgoAEDWydYEsznzxB
+8YQ0/aDNR9ExMFfeTA3lb6jYr7z/jcUqxKyD5hQ4Wf2xGn1DgX+FJVafOKGs9XJ
dGgkFJicpnagbrt+vfLs8NuVIdr16HdZw8erQZQCvpyiNkuQE+cjtnbsBC0oKwzK
4GELUBWGh5yXAZfWO/2tNUhoIGOiLGhgEjR3lTgTO2UYaQA=
-----END CERTIFICATE-----
