Certificate:
    Data:
        Version: 3 (0x2)
        Serial Number: 268435675 (0x100000db)
    Signature Algorithm: sha256WithRSAEncryption
        Issuer: C=DE, ST=Hessen, O=privacyidea, CN=CA001
        Validity
            Not Before: May  7 13:23:44 2019 GMT
            Not After : May  6 13:23:44 2020 GMT
        Subject: CN=Steve Test/emailAddress=steve@openssl.org
        Subject Public Key Info:
            Public Key Algorithm: rsaEncryption
                Public-Key: (2048 bit)
                Modulus:
                    00:d2:81:89:20:51:48:0f:73:f4:11:32:24:d5:1f:
                    1c:fd:5c:f5:b6:e6:c5:f0:52:81:dc:d2:af:66:4a:
                    7c:93:31:61:5c:af:d1:6d:06:70:03:60:7c:72:0c:
                    88:dd:49:cd:9e:02:6c:d2:5a:d7:53:0f:f3:da:be:
                    69:64:b5:0f:0c:00:e3:b3:50:47:a3:b3:9b:ba:13:
                    50:d6:58:5a:4b:ab:39:e0:11:ca:0a:27:67:03:78:
                    22:66:6d:92:1e:1b:5c:49:ae:e6:6b:d1:8e:3b:9d:
                    06:d3:c6:ac:4d:53:43:10:ab:e8:96:c1:87:82:97:
                    99:8f:20:d3:99:12:37:31:84:e1:8a:ff:29:03:5f:
                    22:90:3e:7f:9b:e0:20:c1:ad:dc:ae:4c:39:1a:31:
                    96:17:02:8c:b2:d9:b4:0d:20:12:9b:7d:86:54:fd:
                    33:fd:c1:2a:62:46:f8:60:96:cf:6e:01:6f:22:df:
                    13:47:e7:97:ec:05:72:23:a3:62:f8:fa:ef:ac:9c:
                    72:f0:37:cb:2f:37:cf:90:a8:27:51:86:c6:d7:78:
                    08:8f:7e:25:a2:15:70:a2:fb:1c:b6:15:5e:a0:97:
                    8b:81:4c:09:28:8a:27:3b:94:bc:71:db:5b:71:37:
                    9a:2b:16:e0:6f:b5:c9:f5:4b:4f:20:ba:65:cf:af:
                    ad:ad
                Exponent: 65537 (0x10001)
        X509v3 extensions:
            X509v3 Key Usage: 
                Digital Signature, Key Encipherment
            X509v3 Basic Constraints: 
                CA:FALSE
            Netscape Cert Type: 
                SSL Server
            Netscape Comment: 
                OpenSSL Generated Server Certificate
            X509v3 Subject Key Identifier: 
                E5:25:6D:3E:AF:0D:DD:3F:4C:F2:45:19:39:D5:14:DB:7E:9C:C0:AD
            X509v3 Authority Key Identifier: 
                keyid:F4:A7:C0:CC:91:46:AF:64:F3:91:F2:27:F8:C8:B2:6F:8A:87:32:73
                DirName:/C=DE/ST=Hessen/O=privacyidea/CN=CA001
                serial:FB:C8:EB:AC:83:CD:12:07

            X509v3 Extended Key Usage: 
                TLS Web Server Authentication
    Signature Algorithm: sha256WithRSAEncryption
         41:0e:fd:22:f4:6d:bc:e7:8e:e3:b8:e0:8d:a9:6c:5b:51:42:
         bb:b6:a5:e8:b3:fb:2c:e7:d2:8b:b8:8e:b5:5c:af:1f:52:bf:
         b4:f7:ca:b0:f7:99:ff:8f:45:c7:bc:87:e8:a1:06:00:c4:1a:
         6a:a9:26:2d:98:21:b9:82:f7:ac:71:d9:e9:de:95:2e:a7:a2:
         cb:d9:71:7d:fd:30:c1:e9:a5:87:2b:8d:bf:8e:1f:13:04:13:
         a5:20:c5:7d:dc:6f:d0:99:0b:48:8d:96:cb:ef:3f:de:5a:0d:
         12:01:7d:64:64:2c:34:d8:d7:06:f4:97:50:9d:94:c4:55:2e:
         17:72:1b:84:65:ad:28:e6:b3:81:e6:6b:a2:1f:ac:2a:77:31:
         2f:d0:fc:f0:cc:7a:98:27:38:29:d3:c4:7c:a9:44:81:f9:75:
         86:7f:72:0f:68:7b:de:60:7f:63:f8:48:ea:21:0a:be:f8:b4:
         83:b6:d9:fa:f0:82:96:f2:32:ad:36:be:ea:28:99:bf:ec:99:
         b0:4c:97:7e:8f:9b:49:91:64:fc:ca:c7:67:69:58:10:51:ec:
         da:98:75:36:9e:cf:72:59:a0:00:94:d0:db:75:45:09:d0:cc:
         51:5d:8a:8f:fb:63:03:f6:35:41:2a:e6:aa:e8:e4:5b:46:30:
         98:29:54:da
-----BEGIN CERTIFICATE-----
MIIECTCCAvGgAwIBAgIEEAAA2zANBgkqhkiG9w0BAQsFADBEMQswCQYDVQQGEwJE
RTEPMA0GA1UECAwGSGVzc2VuMRQwEgYDVQQKDAtwcml2YWN5aWRlYTEOMAwGA1UE
AwwFQ0EwMDEwHhcNMTkwNTA3MTMyMzQ0WhcNMjAwNTA2MTMyMzQ0WjA3MRMwEQYD
VQQDDApTdGV2ZSBUZXN0MSAwHgYJKoZIhvcNAQkBFhFzdGV2ZUBvcGVuc3NsLm9y
ZzCCASIwDQYJKoZIhvcNAQEBBQADggEPADCCAQoCggEBANKBiSBRSA9z9BEyJNUf
HP1c9bbmxfBSgdzSr2ZKfJMxYVyv0W0GcANgfHIMiN1JzZ4CbNJa11MP89q+aWS1
DwwA47NQR6Ozm7oTUNZYWkurOeARygonZwN4ImZtkh4bXEmu5mvRjjudBtPGrE1T
QxCr6JbBh4KXmY8g05kSNzGE4Yr/KQNfIpA+f5vgIMGt3K5MORoxlhcCjLLZtA0g
Ept9hlT9M/3BKmJG+GCWz24BbyLfE0fnl+wFciOjYvj676yccvA3yy83z5CoJ1GG
xtd4CI9+JaIVcKL7HLYVXqCXi4FMCSiKJzuUvHHbW3E3misW4G+1yfVLTyC6Zc+v
ra0CAwEAAaOCAQ4wggEKMAsGA1UdDwQEAwIFoDAJBgNVHRMEAjAAMBEGCWCGSAGG
+EIBAQQEAwIGQDAzBglghkgBhvhCAQ0EJhYkT3BlblNTTCBHZW5lcmF0ZWQgU2Vy
dmVyIENlcnRpZmljYXRlMB0GA1UdDgQWBBTlJW0+rw3dP0zyRRk51RTbfpzArTB0
BgNVHSMEbTBrgBT0p8DMkUavZPOR8if4yLJviocyc6FIpEYwRDELMAkGA1UEBhMC
REUxDzANBgNVBAgMBkhlc3NlbjEUMBIGA1UECgwLcHJpdmFjeWlkZWExDjAMBgNV
BAMMBUNBMDAxggkA+8jrrIPNEgcwEwYDVR0lBAwwCgYIKwYBBQUHAwEwDQYJKoZI
hvcNAQELBQADggEBAEEO/SL0bbznjuO44I2pbFtRQru2peiz+yzn0ou4jrVcrx9S
v7T3yrD3mf+PRce8h+ihBgDEGmqpJi2YIbmC96xx2enelS6nosvZcX39MMHppYcr
jb+OHxMEE6UgxX3cb9CZC0iNlsvvP95aDRIBfWRkLDTY1wb0l1CdlMRVLhdyG4Rl
rSjms4Hma6IfrCp3MS/Q/PDMepgnOCnTxHypRIH5dYZ/cg9oe95gf2P4SOohCr74
tIO22frwgpbyMq02vuoomb/smbBMl36Pm0mRZPzKx2dpWBBR7NqYdTaez3JZoACU
0Nt1RQnQzFFdio/7YwP2NUEq5qro5FtGMJgpVNo=
-----END CERTIFICATE-----
