Certificate:
    Data:
        Version: 3 (0x2)
        Serial Number: 268435666 (0x100000d2)
    Signature Algorithm: sha256WithRSAEncryption
        Issuer: C=DE, ST=Hessen, O=privacyidea, CN=CA001
        Validity
            Not Before: May  7 12:47:42 2019 GMT
            Not After : May  6 12:47:42 2020 GMT
        Subject: C=DE, ST=Hessen, O=privacyidea, CN=usercert
        Subject Public Key Info:
            Public Key Algorithm: rsaEncryption
                Public-Key: (2048 bit)
                Modulus:
                    00:dc:2f:d1:5f:29:97:d4:7c:c3:53:c8:30:bd:4b:
                    67:70:2c:24:6b:b8:5e:eb:21:7a:48:12:56:7c:81:
                    5c:48:75:b6:68:eb:f6:f2:98:4e:50:51:d1:7f:6c:
                    73:f3:0a:a7:ae:be:48:5e:e5:d6:e1:d9:2a:7c:32:
                    6e:4e:fd:08:f6:5a:54:49:23:73:c3:b9:07:18:d1:
                    ef:b3:ac:f8:8a:dc:94:96:a4:90:3a:8e:74:df:e6:
                    0d:37:1b:bd:5b:b7:25:1a:56:39:da:6f:91:aa:5e:
                    1c:74:f3:f9:7c:14:01:83:12:65:76:c7:bb:fe:36:
                    5b:95:e9:72:65:83:ed:3e:98:30:71:fa:87:dd:a3:
                    36:5a:30:03:2e:26:e0:61:d1:bf:02:3f:b6:06:1f:
                    4a:89:28:1c:5c:a2:ff:4e:be:94:e6:8c:e0:da:82:
                    f1:9d:29:32:48:30:73:b4:04:f6:42:1e:be:f7:e2:
                    32:32:27:3c:9d:89:2f:70:3e:85:9a:6f:5c:c5:09:
                    c0:8c:32:2f:72:22:c9:d2:95:1f:b6:ac:72:60:72:
                    b7:82:4d:6b:ce:5b:e3:00:d0:d2:2f:58:c6:e0:10:
                    e5:51:ca:4d:3b:2e:e6:7e:ab:84:d6:56:f1:93:35:
                    a0:93:64:26:81:75:2f:91:b5:16:06:38:0b:db:cc:
                    2d:07
                Exponent: 65537 (0x10001)
        X509v3 extensions:
            X509v3 Key Usage: 
                Digital Signature, Key Encipherment
            X509v3 Basic Constraints: 
                CA:FALSE
            Netscape Cert Type: 
                SSL Server
            Netscape Comment: 
                OpenSSL Generated Server Certificate
            X509v3 Subject Key Identifier: 
                FC:14:D1:F0:4B:8D:00:90:F2:F5:B8:71:9E:4E:97:C3:92:54:AD:0B
            X509v3 Authority Key Identifier: 
                keyid:F4:A7:C0:CC:91:46:AF:64:F3:91:F2:27:F8:C8:B2:6F:8A:87:32:73
                DirName:/C=DE/ST=Hessen/O=privacyidea/CN=CA001
                serial:FB:C8:EB:AC:83:CD:12:07

            X509v3 Extended Key Usage: 
                TLS Web Server Authentication
    Signature Algorithm: sha256WithRSAEncryption
         3b:3a:ec:6f:1a:00:74:6f:1d:7b:74:46:1a:ed:02:f1:cd:f9:
         cc:9b:e1:a8:af:3e:46:40:c9:ab:a2:7d:5e:4a:54:7e:8c:53:
         ed:fd:69:2a:ba:b6:40:ab:5a:04:87:47:62:ce:43:06:8e:1b:
         00:eb:6f:c4:b1:32:60:3f:0e:ee:60:b6:9f:ca:a4:1f:56:53:
         43:c9:c1:c0:66:9a:a8:49:7b:86:ee:34:01:55:b4:cb:a9:03:
         ad:1d:f7:d9:ca:c9:d8:78:26:c6:64:0b:b9:00:b8:26:33:01:
         0f:f8:9c:7e:16:28:8e:b2:18:cc:3b:87:dd:b1:2e:47:0b:74:
         6f:88:ac:3b:1f:cd:c7:63:fc:e6:88:ca:e6:ba:9a:37:cb:97:
         e8:1a:b4:c6:ad:76:6e:9d:67:a3:d4:97:b7:d0:95:31:57:27:
         a1:a3:ea:eb:5e:a5:ef:5e:37:16:fb:3a:56:f4:5b:4b:2f:dd:
         55:0e:4c:39:77:b1:6c:18:54:c6:26:4b:fd:fb:24:0a:94:8f:
         4b:7f:a0:95:b9:6b:2d:c1:9f:35:a1:be:d4:3d:85:c4:13:f2:
         41:1f:36:b9:54:9c:a3:b1:dd:40:18:2b:2b:dc:2b:13:63:0e:
         11:a6:eb:1b:79:12:50:bc:41:36:ec:13:07:a9:79:03:6a:b9:
         1c:7d:9c:8b
-----BEGIN CERTIFICATE-----
MIIEGTCCAwGgAwIBAgIEEAAA0jANBgkqhkiG9w0BAQsFADBEMQswCQYDVQQGEwJE
RTEPMA0GA1UECAwGSGVzc2VuMRQwEgYDVQQKDAtwcml2YWN5aWRlYTEOMAwGA1UE
AwwFQ0EwMDEwHhcNMTkwNTA3MTI0NzQyWhcNMjAwNTA2MTI0NzQyWjBHMQswCQYD
VQQGEwJERTEPMA0GA1UECAwGSGVzc2VuMRQwEgYDVQQKDAtwcml2YWN5aWRlYTER
MA8GA1UEAwwIdXNlcmNlcnQwggEiMA0GCSqGSIb3DQEBAQUAA4IBDwAwggEKAoIB
AQDcL9FfKZfUfMNTyDC9S2dwLCRruF7rIXpIElZ8gVxIdbZo6/bymE5QUdF/bHPz
Cqeuvkhe5dbh2Sp8Mm5O/Qj2WlRJI3PDuQcY0e+zrPiK3JSWpJA6jnTf5g03G71b
tyUaVjnab5GqXhx08/l8FAGDEmV2x7v+NluV6XJlg+0+mDBx+ofdozZaMAMuJuBh
0b8CP7YGH0qJKBxcov9OvpTmjODagvGdKTJIMHO0BPZCHr734jIyJzydiS9wPoWa
b1zFCcCMMi9yIsnSlR+2rHJgcreCTWvOW+MA0NIvWMbgEOVRyk07LuZ+q4TWVvGT
NaCTZCaBdS+RtRYGOAvbzC0HAgMBAAGjggEOMIIBCjALBgNVHQ8EBAMCBaAwCQYD
VR0TBAIwADARBglghkgBhvhCAQEEBAMCBkAwMwYJYIZIAYb4QgENBCYWJE9wZW5T
U0wgR2VuZXJhdGVkIFNlcnZlciBDZXJ0aWZpY2F0ZTAdBgNVHQ4EFgQU/BTR8EuN
AJDy9bhxnk6Xw5JUrQswdAYDVR0jBG0wa4AU9KfAzJFGr2TzkfIn+Miyb4qHMnOh
SKRGMEQxCzAJBgNVBAYTAkRFMQ8wDQYDVQQIDAZIZXNzZW4xFDASBgNVBAoMC3By
aXZhY3lpZGVhMQ4wDAYDVQQDDAVDQTAwMYIJAPvI66yDzRIHMBMGA1UdJQQMMAoG
CCsGAQUFBwMBMA0GCSqGSIb3DQEBCwUAA4IBAQA7OuxvGgB0bx17dEYa7QLxzfnM
m+Gorz5GQMmron1eSlR+jFPt/WkqurZAq1oEh0dizkMGjhsA62/EsTJgPw7uYLaf
yqQfVlNDycHAZpqoSXuG7jQBVbTLqQOtHffZysnYeCbGZAu5ALgmMwEP+Jx+FiiO
shjMO4fdsS5HC3RviKw7H83HY/zmiMrmupo3y5foGrTGrXZunWej1Je30JUxVyeh
o+rrXqXvXjcW+zpW9FtLL91VDkw5d7FsGFTGJkv9+yQKlI9Lf6CVuWstwZ81ob7U
PYXEE/JBHza5VJyjsd1AGCsr3CsTYw4RpusbeRJQvEE27BMHqXkDarkcfZyL
-----END CERTIFICATE-----
