Certificate:
    Data:
        Version: 3 (0x2)
        Serial Number: 268435676 (0x100000dc)
    Signature Algorithm: sha256WithRSAEncryption
        Issuer: C=DE, ST=Hessen, O=privacyidea, CN=CA001
        Validity
            Not Before: May  7 13:23:44 2019 GMT
            Not After : May 26 13:23:44 2021 GMT
        Subject: CN=Steve Test/emailAddress=steve@openssl.org
        Subject Public Key Info:
            Public Key Algorithm: rsaEncryption
                Public-Key: (2048 bit)
                Modulus:
                    00:d2:81:89:20:51:48:0f:73:f4:11:32:24:d5:1f:
                    1c:fd:5c:f5:b6:e6:c5:f0:52:81:dc:d2:af:66:4a:
                    7c:93:31:61:5c:af:d1:6d:06:70:03:60:7c:72:0c:
                    88:dd:49:cd:9e:02:6c:d2:5a:d7:53:0f:f3:da:be:
                    69:64:b5:0f:0c:00:e3:b3:50:47:a3:b3:9b:ba:13:
                    50:d6:58:5a:4b:ab:39:e0:11:ca:0a:27:67:03:78:
                    22:66:6d:92:1e:1b:5c:49:ae:e6:6b:d1:8e:3b:9d:
                    06:d3:c6:ac:4d:53:43:10:ab:e8:96:c1:87:82:97:
                    99:8f:20:d3:99:12:37:31:84:e1:8a:ff:29:03:5f:
                    22:90:3e:7f:9b:e0:20:c1:ad:dc:ae:4c:39:1a:31:
                    96:17:02:8c:b2:d9:b4:0d:20:12:9b:7d:86:54:fd:
                    33:fd:c1:2a:62:46:f8:60:96:cf:6e:01:6f:22:df:
                    13:47:e7:97:ec:05:72:23:a3:62:f8:fa:ef:ac:9c:
                    72:f0:37:cb:2f:37:cf:90:a8:27:51:86:c6:d7:78:
                    08:8f:7e:25:a2:15:70:a2:fb:1c:b6:15:5e:a0:97:
                    8b:81:4c:09:28:8a:27:3b:94:bc:71:db:5b:71:37:
                    9a:2b:16:e0:6f:b5:c9:f5:4b:4f:20:ba:65:cf:af:
                    ad:ad
                Exponent: 65537 (0x10001)
        X509v3 extensions:
            X509v3 Key Usage: 
                Digital Signature, Key Encipherment
            X509v3 Basic Constraints: 
                CA:FALSE
            Netscape Cert Type: 
                SSL Server
            Netscape Comment: 
                OpenSSL Generated Server Certificate
            X509v3 Subject Key Identifier: 
                E5:25:6D:3E:AF:0D:DD:3F:4C:F2:45:19:39:D5:14:DB:7E:9C:C0:AD
            X509v3 Authority Key Identifier: 
                keyid:F4:A7:C0:CC:91:46:AF:64:F3:91:F2:27:F8:C8:B2:6F:8A:87:32:73
                DirName:/C=DE/ST=Hessen/O=privacyidea/CN=CA001
                serial:FB:C8:EB:AC:83:CD:12:07

            X509v3 Extended Key Usage: 
                TLS Web Server Authentication
    Signature Algorithm: sha256WithRSAEncryption
         32:12:9d:e2:09:66:e7:0c:28:52:6f:5e:4b:86:5b:1f:cc:95:
         f6:63:ec:6b:cc:36:8b:04:66:8b:7d:ba:66:87:fc:34:f3:b8:
         d6:11:cd:f3:da:a0:f9:01:0d:8f:4f:86:7d:9f:8c:af:97:2b:
         4a:88:c0:2a:78:b0:6d:32:1c:df:dd:14:86:2c:3a:28:28:80:
         eb:50:ae:a8:14:ff:81:05:21:12:34:4f:db:bc:66:33:0f:20:
         f8:84:ca:d8:61:26:83:6b:df:2c:85:de:76:6c:6f:e2:cc:e2:
         91:d3:80:fb:4c:c2:d3:52:2c:99:26:9f:61:13:68:96:d0:24:
         54:58:ef:7a:0b:b9:b1:54:4b:0b:79:38:b5:a3:ae:f9:e2:bf:
         5d:28:91:25:23:20:38:f0:35:a5:10:12:0f:a4:7f:83:86:6e:
         1a:f1:a5:d4:9e:01:51:a8:5f:7c:3e:2f:aa:9b:bf:79:00:96:
         5b:ef:63:92:c3:0c:32:e9:56:b1:f4:e3:95:1b:93:99:30:7e:
         b3:58:a6:32:8d:6f:11:79:93:29:96:e8:14:ee:6d:d3:ab:48:
         ab:e7:56:54:28:c6:1c:4b:1d:0e:53:84:76:23:99:c1:84:57:
         20:61:d7:63:34:cb:8a:d5:b9:d0:17:70:b6:5a:2b:de:cd:9e:
         7a:b4:e6:38
-----BEGIN CERTIFICATE-----
MIIECTCCAvGgAwIBAgIEEAAA3DANBgkqhkiG9w0BAQsFADBEMQswCQYDVQQGEwJE
RTEPMA0GA1UECAwGSGVzc2VuMRQwEgYDVQQKDAtwcml2YWN5aWRlYTEOMAwGA1UE
AwwFQ0EwMDEwHhcNMTkwNTA3MTMyMzQ0WhcNMjEwNTI2MTMyMzQ0WjA3MRMwEQYD
VQQDDApTdGV2ZSBUZXN0MSAwHgYJKoZIhvcNAQkBFhFzdGV2ZUBvcGVuc3NsLm9y
ZzCCASIwDQYJKoZIhvcNAQEBBQADggEPADCCAQoCggEBANKBiSBRSA9z9BEyJNUf
HP1c9bbmxfBSgdzSr2ZKfJMxYVyv0W0GcANgfHIMiN1JzZ4CbNJa11MP89q+aWS1
DwwA47NQR6Ozm7oTUNZYWkurOeARygonZwN4ImZtkh4bXEmu5mvRjjudBtPGrE1T
QxCr6JbBh4KXmY8g05kSNzGE4Yr/KQNfIpA+f5vgIMGt3K5MORoxlhcCjLLZtA0g
Ept9hlT9M/3BKmJG+GCWz24BbyLfE0fnl+wFciOjYvj676yccvA3yy83z5CoJ1GG
xtd4CI9+JaIVcKL7HLYVXqCXi4FMCSiKJzuUvHHbW3E3misW4G+1yfVLTyC6Zc+v
ra0CAwEAAaOCAQ4wggEKMAsGA1UdDwQEAwIFoDAJBgNVHRMEAjAAMBEGCWCGSAGG
+EIBAQQEAwIGQDAzBglghkgBhvhCAQ0EJhYkT3BlblNTTCBHZW5lcmF0ZWQgU2Vy
dmVyIENlcnRpZmljYXRlMB0GA1UdDgQWBBTlJW0+rw3dP0zyRRk51RTbfpzArTB0
BgNVHSMEbTBrgBT0p8DMkUavZPOR8if4yLJviocyc6FIpEYwRDELMAkGA1UEBhMC
REUxDzANBgNVBAgMBkhlc3NlbjEUMBIGA1UECgwLcHJpdmFjeWlkZWExDjAMBgNV
BAMMBUNBMDAxggkA+8jrrIPNEgcwEwYDVR0lBAwwCgYIKwYBBQUHAwEwDQYJKoZI
hvcNAQELBQADggEBADISneIJZucMKFJvXkuGWx/MlfZj7GvMNosEZot9umaH/DTz
uNYRzfPaoPkBDY9Phn2fjK+XK0qIwCp4sG0yHN/dFIYsOigogOtQrqgU/4EFIRI0
T9u8ZjMPIPiEythhJoNr3yyF3nZsb+LM4pHTgPtMwtNSLJkmn2ETaJbQJFRY73oL
ubFUSwt5OLWjrvniv10okSUjIDjwNaUQEg+kf4OGbhrxpdSeAVGoX3w+L6qbv3kA
llvvY5LDDDLpVrH045Ubk5kwfrNYpjKNbxF5kymW6BTubdOrSKvnVlQoxhxLHQ5T
hHYjmcGEVyBh12M0y4rVudAXcLZaK97Nnnq05jg=
-----END CERTIFICATE-----
