Certificate:
    Data:
        Version: 3 (0x2)
        Serial Number: 268435671 (0x100000d7)
    Signature Algorithm: sha256WithRSAEncryption
        Issuer: C=DE, ST=Hessen, O=privacyidea, CN=CA001
        Validity
            Not Before: May  7 12:51:09 2019 GMT
            Not After : May  6 12:51:09 2020 GMT
        Subject: CN=selfservice,CN=user,O=realm1/emailAddress=meine
        Subject Public Key Info:
            Public Key Algorithm: rsaEncryption
                Public-Key: (2048 bit)
                Modulus:
                    00:cf:3c:d4:33:0e:12:c4:e6:da:cd:b6:56:a1:1c:
                    26:bb:26:1c:8a:4a:73:a8:58:8a:b6:1e:b3:8b:99:
                    d2:1d:07:c2:92:89:79:c0:69:d8:c8:df:28:61:98:
                    1e:b3:fe:ae:2b:bd:78:a9:f7:6e:47:dc:a3:a0:16:
                    8c:85:02:c1:4e:92:fd:72:6e:f0:c8:03:29:9b:b8:
                    00:6e:c0:83:95:c8:34:20:36:9c:b3:e5:e4:e6:76:
                    73:a3:1a:ad:40:96:e0:53:54:00:ec:76:79:9a:c6:
                    0d:7e:b6:bd:29:ec:83:f3:cb:89:a4:cb:6c:00:ba:
                    0c:c5:78:0f:ff:69:b8:94:f4:04:70:43:3f:d8:9e:
                    d7:a7:fb:5d:ce:75:8e:da:e7:c4:07:b1:9d:de:6f:
                    88:4b:b6:4d:9a:cf:f9:bc:fa:9f:cd:32:6d:f6:3a:
                    0b:0d:23:42:78:ec:97:42:bf:0e:4d:60:56:e1:d3:
                    02:f2:19:cb:84:57:90:e5:70:a1:a2:83:35:86:e2:
                    da:86:9f:f9:8a:c4:79:b3:52:28:da:cb:bb:34:ca:
                    d3:da:91:4a:cf:8d:76:a2:b2:6b:9b:f9:96:fd:09:
                    2a:da:11:23:4d:f0:cb:d6:b2:b1:0e:12:6c:9a:19:
                    65:98:87:ca:e4:ee:24:ce:44:ac:90:8f:9d:1b:c5:
                    2a:9d
                Exponent: 65537 (0x10001)
        X509v3 extensions:
            X509v3 Key Usage: 
                Digital Signature, Key Encipherment
            X509v3 Basic Constraints: 
                CA:FALSE
            Netscape Cert Type: 
                SSL Server
            Netscape Comment: 
                OpenSSL Generated Server Certificate
            X509v3 Subject Key Identifier: 
                4D:07:90:AD:FF:1D:0D:E7:1A:DD:D6:2E:FA:BA:34:CB:AA:1F:24:C6
            X509v3 Authority Key Identifier: 
                keyid:F4:A7:C0:CC:91:46:AF:64:F3:91:F2:27:F8:C8:B2:6F:8A:87:32:73
                DirName:/C=DE/ST=Hessen/O=privacyidea/CN=CA001
                serial:FB:C8:EB:AC:83:CD:12:07

            X509v3 Extended Key Usage: 
                TLS Web Server Authentication
    Signature Algorithm: sha256WithRSAEncryption
         66:a7:26:8d:91:8a:e3:bf:f0:47:c3:0e:eb:57:c0:7c:2b:cb:
         57:67:c5:dc:1d:85:9b:7f:18:2b:0c:51:76:2c:6f:f9:41:ab:
         39:21:20:8c:25:59:40:b4:d8:4e:f8:da:ea:f4:0f:7a:b5:9a:
         cb:a0:e2:63:5a:85:a0:3d:3b:c7:9e:47:b3:f0:e6:01:5e:03:
         3a:6c:a2:a6:e3:ee:f8:4f:c0:27:42:4c:8a:18:87:37:c8:3d:
         6a:39:75:36:31:3d:68:23:8a:ee:07:b6:38:89:08:02:4e:1a:
         c3:64:28:5a:d4:3d:59:57:88:5b:63:73:55:c7:1d:b3:4d:92:
         7f:b1:fe:f3:17:6d:60:47:b3:9c:a7:7b:16:82:91:fe:37:4f:
         8d:e0:23:84:5f:88:2c:a0:ec:b4:37:db:20:e1:17:fe:c3:ca:
         80:b9:ab:51:62:dd:60:bc:56:6e:c8:f4:33:72:48:77:32:ef:
         b2:29:f6:60:e3:64:69:38:f8:31:ab:a2:06:42:eb:3b:b9:8b:
         f8:f1:42:0c:df:e6:91:95:3a:cc:67:59:a6:83:ff:34:0a:3c:
         72:90:c4:c2:f2:45:77:8f:92:c2:a5:4a:b6:a7:14:1e:18:d5:
         f7:b5:fe:5d:43:ca:f8:42:6c:86:e6:2a:ca:e8:4a:54:1c:d1:
         4b:ea:e9:c2
-----BEGIN CERTIFICATE-----
MIIEDzCCAvegAwIBAgIEEAAA1zANBgkqhkiG9w0BAQsFADBEMQswCQYDVQQGEwJE
RTEPMA0GA1UECAwGSGVzc2VuMRQwEgYDVQQKDAtwcml2YWN5aWRlYTEOMAwGA1UE
AwwFQ0EwMDEwHhcNMTkwNTA3MTI1MTA5WhcNMjAwNTA2MTI1MTA5WjA9MSUwIwYD
VQQDDBxzZWxmc2VydmljZSxDTj11c2VyLE89cmVhbG0xMRQwEgYJKoZIhvcNAQkB
FgVtZWluZTCCASIwDQYJKoZIhvcNAQEBBQADggEPADCCAQoCggEBAM881DMOEsTm
2s22VqEcJrsmHIpKc6hYirYes4uZ0h0HwpKJecBp2MjfKGGYHrP+riu9eKn3bkfc
o6AWjIUCwU6S/XJu8MgDKZu4AG7Ag5XINCA2nLPl5OZ2c6MarUCW4FNUAOx2eZrG
DX62vSnsg/PLiaTLbAC6DMV4D/9puJT0BHBDP9ie16f7Xc51jtrnxAexnd5viEu2
TZrP+bz6n80ybfY6Cw0jQnjsl0K/Dk1gVuHTAvIZy4RXkOVwoaKDNYbi2oaf+YrE
ebNSKNrLuzTK09qRSs+NdqKya5v5lv0JKtoRI03wy9aysQ4SbJoZZZiHyuTuJM5E
rJCPnRvFKp0CAwEAAaOCAQ4wggEKMAsGA1UdDwQEAwIFoDAJBgNVHRMEAjAAMBEG
CWCGSAGG+EIBAQQEAwIGQDAzBglghkgBhvhCAQ0EJhYkT3BlblNTTCBHZW5lcmF0
ZWQgU2VydmVyIENlcnRpZmljYXRlMB0GA1UdDgQWBBRNB5Ct/x0N5xrd1i76ujTL
qh8kxjB0BgNVHSMEbTBrgBT0p8DMkUavZPOR8if4yLJviocyc6FIpEYwRDELMAkG
A1UEBhMCREUxDzANBgNVBAgMBkhlc3NlbjEUMBIGA1UECgwLcHJpdmFjeWlkZWEx
DjAMBgNVBAMMBUNBMDAxggkA+8jrrIPNEgcwEwYDVR0lBAwwCgYIKwYBBQUHAwEw
DQYJKoZIhvcNAQELBQADggEBAGanJo2RiuO/8EfDDutXwHwry1dnxdwdhZt/GCsM
UXYsb/lBqzkhIIwlWUC02E742ur0D3q1msug4mNahaA9O8eeR7Pw5gFeAzpsoqbj
7vhPwCdCTIoYhzfIPWo5dTYxPWgjiu4HtjiJCAJOGsNkKFrUPVlXiFtjc1XHHbNN
kn+x/vMXbWBHs5ynexaCkf43T43gI4RfiCyg7LQ32yDhF/7DyoC5q1Fi3WC8Vm7I
9DNySHcy77Ip9mDjZGk4+DGrogZC6zu5i/jxQgzf5pGVOsxnWaaD/zQKPHKQxMLy
RXePksKlSranFB4Y1fe1/l1DyvhCbIbmKsroSlQc0Uvq6cI=
-----END CERTIFICATE-----
