Certificate:
    Data:
        Version: 3 (0x2)
        Serial Number: 268435678 (0x100000de)
    Signature Algorithm: sha256WithRSAEncryption
        Issuer: C=DE, ST=Hessen, O=privacyidea, CN=CA001
        Validity
            Not Before: May  7 13:26:27 2019 GMT
            Not After : May  6 13:26:27 2020 GMT
        Subject: OU=realm1, CN=cornelius/emailAddress=user@localhost.localdomain
        Subject Public Key Info:
            Public Key Algorithm: rsaEncryption
                Public-Key: (2048 bit)
                Modulus:
                    00:c8:a1:91:71:7a:52:2d:76:06:bc:72:8d:38:59:
                    7e:bc:b1:1c:13:3a:cd:76:85:b2:3a:a6:8b:80:a0:
                    a8:45:c1:e8:ed:46:08:bb:35:50:15:fb:77:59:f4:
                    48:e6:bc:02:9f:7d:59:35:43:7c:05:7d:af:63:c6:
                    e9:f5:04:2c:e2:9f:1c:dd:54:25:05:17:a6:6c:56:
                    29:58:8a:a5:40:46:14:05:2e:11:36:9a:7a:82:55:
                    a8:6a:ea:15:85:6f:f7:c1:21:65:a5:6b:a8:65:17:
                    d2:1e:78:dd:6c:77:1c:b8:65:93:3c:56:71:f7:9c:
                    19:85:6b:fb:7d:48:ef:d5:08:e7:a6:6f:fd:a8:cb:
                    65:0e:f4:fd:7b:c4:2b:42:d6:53:f2:0d:30:78:e7:
                    53:05:1b:91:84:53:e1:09:74:93:e6:ce:51:45:1a:
                    cf:2d:70:60:27:b0:ab:3c:e5:05:d7:4b:7d:00:a3:
                    88:2f:a5:59:72:cf:75:59:2f:0a:83:c3:d8:64:53:
                    93:5a:85:9e:4a:df:f8:8d:31:e4:b5:39:f8:7c:a8:
                    3f:d5:1a:f0:90:4d:68:f2:56:0b:e8:6b:24:4b:3d:
                    04:9a:6f:90:a3:69:db:8b:35:7f:99:cb:f5:0d:56:
                    58:a3:1f:f7:2e:99:35:91:ea:6b:62:5a:69:91:aa:
                    ba:e5
                Exponent: 65537 (0x10001)
        X509v3 extensions:
            X509v3 Key Usage: 
                Digital Signature, Key Encipherment
            X509v3 Basic Constraints: 
                CA:FALSE
            Netscape Cert Type: 
                SSL Server
            Netscape Comment: 
                OpenSSL Generated Server Certificate
            X509v3 Subject Key Identifier: 
                96:7C:04:52:D4:47:DD:1B:AF:54:32:C8:AB:47:64:55:9C:B1:E1:29
            X509v3 Authority Key Identifier: 
                keyid:F4:A7:C0:CC:91:46:AF:64:F3:91:F2:27:F8:C8:B2:6F:8A:87:32:73
                DirName:/C=DE/ST=Hessen/O=privacyidea/CN=CA001
                serial:FB:C8:EB:AC:83:CD:12:07

            X509v3 Extended Key Usage: 
                TLS Web Server Authentication
    Signature Algorithm: sha256WithRSAEncryption
         73:6e:0f:a8:53:1b:b8:73:6c:a4:75:64:93:fc:72:0e:02:44:
         2c:99:09:97:75:83:f7:cd:c8:37:ce:56:c8:c8:e2:67:73:79:
         31:81:d0:34:e1:57:3c:ff:c8:36:1d:bb:ab:a0:e4:32:fa:e0:
         91:9f:04:e5:63:46:74:85:b8:ef:9c:43:2d:c7:ea:04:0d:d1:
         26:49:79:09:ff:ed:2d:71:c4:9e:b0:ee:64:26:c2:f7:db:47:
         84:c8:7a:e6:04:cc:ed:a9:b5:1c:5d:d7:c4:49:74:96:04:ad:
         fb:60:e4:76:8c:cc:f7:ba:03:c5:53:f3:19:2f:85:bf:56:95:
         bc:68:79:b8:06:01:d8:04:3a:4f:12:05:d8:f1:dc:2c:72:09:
         9e:f2:fa:e1:8c:41:e6:69:27:5c:4f:c0:95:41:ec:01:44:9f:
         e7:0b:8c:16:16:ad:e1:c4:69:2f:83:8c:88:21:ea:e9:ec:74:
         40:38:d0:db:0c:aa:80:db:a9:fc:d9:19:e1:ab:51:52:b0:b1:
         45:36:18:55:b7:1a:07:20:03:a4:dd:98:cb:a5:d4:e4:fe:3f:
         52:b0:af:61:84:0a:5d:7a:e8:9f:27:ee:21:68:6c:86:75:33:
         c4:d7:69:62:7d:ba:e3:72:d9:f6:07:97:e4:6f:d2:68:88:50:
         91:ef:e0:34
-----BEGIN CERTIFICATE-----
MIIEIjCCAwqgAwIBAgIEEAAA3jANBgkqhkiG9w0BAQsFADBEMQswCQYDVQQGEwJE
RTEPMA0GA1UECAwGSGVzc2VuMRQwEgYDVQQKDAtwcml2YWN5aWRlYTEOMAwGA1UE
AwwFQ0EwMDEwHhcNMTkwNTA3MTMyNjI3WhcNMjAwNTA2MTMyNjI3WjBQMQ8wDQYD
VQQLDAZyZWFsbTExEjAQBgNVBAMMCWNvcm5lbGl1czEpMCcGCSqGSIb3DQEJARYa
dXNlckBsb2NhbGhvc3QubG9jYWxkb21haW4wggEiMA0GCSqGSIb3DQEBAQUAA4IB
DwAwggEKAoIBAQDIoZFxelItdga8co04WX68sRwTOs12hbI6pouAoKhFwejtRgi7
NVAV+3dZ9EjmvAKffVk1Q3wFfa9jxun1BCzinxzdVCUFF6ZsVilYiqVARhQFLhE2
mnqCVahq6hWFb/fBIWWla6hlF9IeeN1sdxy4ZZM8VnH3nBmFa/t9SO/VCOemb/2o
y2UO9P17xCtC1lPyDTB451MFG5GEU+EJdJPmzlFFGs8tcGAnsKs85QXXS30Ao4gv
pVlyz3VZLwqDw9hkU5NahZ5K3/iNMeS1Ofh8qD/VGvCQTWjyVgvoayRLPQSab5Cj
aduLNX+Zy/UNVlijH/cumTWR6mtiWmmRqrrlAgMBAAGjggEOMIIBCjALBgNVHQ8E
BAMCBaAwCQYDVR0TBAIwADARBglghkgBhvhCAQEEBAMCBkAwMwYJYIZIAYb4QgEN
BCYWJE9wZW5TU0wgR2VuZXJhdGVkIFNlcnZlciBDZXJ0aWZpY2F0ZTAdBgNVHQ4E
FgQUlnwEUtRH3RuvVDLIq0dkVZyx4SkwdAYDVR0jBG0wa4AU9KfAzJFGr2TzkfIn
+Miyb4qHMnOhSKRGMEQxCzAJBgNVBAYTAkRFMQ8wDQYDVQQIDAZIZXNzZW4xFDAS
BgNVBAoMC3ByaXZhY3lpZGVhMQ4wDAYDVQQDDAVDQTAwMYIJAPvI66yDzRIHMBMG
A1UdJQQMMAoGCCsGAQUFBwMBMA0GCSqGSIb3DQEBCwUAA4IBAQBzbg+oUxu4c2yk
dWST/HIOAkQsmQmXdYP3zcg3zlbIyOJnc3kxgdA04Vc8/8g2HburoOQy+uCRnwTl
Y0Z0hbjvnEMtx+oEDdEmSXkJ/+0tccSesO5kJsL320eEyHrmBMztqbUcXdfESXSW
BK37YOR2jMz3ugPFU/MZL4W/VpW8aHm4BgHYBDpPEgXY8dwscgme8vrhjEHmaSdc
T8CVQewBRJ/nC4wWFq3hxGkvg4yIIerp7HRAONDbDKqA26n82Rnhq1FSsLFFNhhV
txoHIAOk3ZjLpdTk/j9SsK9hhApdeuifJ+4haGyGdTPE12lifbrjctn2B5fkb9Jo
iFCR7+A0
-----END CERTIFICATE-----
