Certificate:
    Data:
        Version: 3 (0x2)
        Serial Number: 268435672 (0x100000d8)
    Signature Algorithm: sha256WithRSAEncryption
        Issuer: C=DE, ST=Hessen, O=privacyidea, CN=CA001
        Validity
            Not Before: May  7 13:21:47 2019 GMT
            Not After : May  6 13:21:47 2020 GMT
        Subject: C=DE, ST=Hessen, O=privacyidea, CN=requester.localdomain
        Subject Public Key Info:
            Public Key Algorithm: rsaEncryption
                Public-Key: (2048 bit)
                Modulus:
                    00:cd:be:14:4f:fa:ce:01:3f:42:22:1b:1d:9c:af:
                    dd:92:d2:7f:db:6c:b7:3e:39:43:43:6b:13:03:f1:
                    05:f4:07:74:bc:76:69:28:0b:af:19:8e:d7:fc:e3:
                    cd:c6:58:f2:ca:7f:08:6d:53:fc:07:02:44:24:c6:
                    b4:34:4c:8c:04:fe:33:0e:40:e2:20:ba:02:73:5a:
                    f7:f5:4f:63:6e:cc:c6:b6:df:54:1d:37:39:7d:51:
                    36:26:5f:bd:dc:3f:a8:8b:6b:a2:ae:b6:9d:d6:21:
                    e7:df:41:b8:7a:28:2a:68:48:ca:a8:2d:ed:e1:e9:
                    46:5e:5a:72:6d:b4:84:38:87:91:fd:94:11:0b:28:
                    84:c6:c2:2f:2a:fb:01:f9:36:7a:09:75:d1:33:88:
                    3c:73:41:5b:c8:bf:94:89:70:a1:f0:c0:b9:2e:50:
                    53:1e:b1:17:64:69:f4:2d:81:e0:a9:0d:0e:32:e9:
                    ba:55:8a:85:f1:1b:6f:49:79:b4:7f:88:c3:0d:3e:
                    54:88:9b:3d:1f:38:8c:04:f3:ee:6a:63:2b:f5:c6:
                    db:b4:83:aa:c4:78:41:3a:7d:4b:e1:c8:3e:71:ca:
                    1b:61:59:ea:c6:c4:ca:32:5e:c9:e9:bf:12:29:e6:
                    c6:c3:63:fe:a0:55:da:7a:f1:60:98:4d:26:ed:fa:
                    70:2d
                Exponent: 65537 (0x10001)
        X509v3 extensions:
            X509v3 Key Usage: 
                Digital Signature, Key Encipherment
            X509v3 Basic Constraints: 
                CA:FALSE
            Netscape Cert Type: 
                SSL Server
            Netscape Comment: 
                OpenSSL Generated Server Certificate
            X509v3 Subject Key Identifier: 
                53:3F:ED:5D:09:07:B3:65:7B:AB:45:C9:24:5B:09:77:80:0A:96:ED
            X509v3 Authority Key Identifier: 
                keyid:F4:A7:C0:CC:91:46:AF:64:F3:91:F2:27:F8:C8:B2:6F:8A:87:32:73
                DirName:/C=DE/ST=Hessen/O=privacyidea/CN=CA001
                serial:FB:C8:EB:AC:83:CD:12:07

            X509v3 Extended Key Usage: 
                TLS Web Server Authentication
    Signature Algorithm: sha256WithRSAEncryption
         67:ed:5d:d9:cb:3e:18:1a:b9:0d:5a:71:cb:c9:6c:34:79:78:
         b5:cf:1c:62:40:91:6b:80:ac:56:8d:47:1c:06:99:a8:ea:0e:
         06:ab:8f:5e:0d:bb:7a:3c:fe:9f:ba:36:f4:9e:fe:83:5e:e8:
         80:8e:34:db:c7:52:c1:7f:7a:a1:33:a3:9f:77:88:df:7f:20:
         72:25:ff:f7:d3:ec:38:4d:f0:56:15:8a:b0:9e:6a:fa:ce:ad:
         52:af:c5:b9:ad:dd:d6:01:50:f7:bd:fd:22:05:6b:ea:ae:6d:
         e8:b7:cc:59:3d:66:77:0c:12:c8:09:9d:e3:57:df:30:7a:81:
         ce:b3:0e:20:3b:fb:70:2f:80:3c:05:57:91:51:2c:e8:68:2a:
         1f:2c:87:dc:62:8b:8f:5c:e0:00:ce:0b:40:66:eb:4b:c6:50:
         c7:19:52:f7:72:4c:c5:c9:94:56:ee:e7:17:8e:f3:2f:02:ab:
         d9:71:63:c5:41:27:fe:96:04:c2:8b:42:89:3a:6b:1b:5e:e6:
         3a:72:87:9d:4f:d7:86:d9:a8:54:ce:1f:d4:35:1e:9c:e4:8b:
         cf:8c:05:bf:45:13:e9:e2:ed:69:8c:9b:6d:b1:97:b9:86:be:
         26:1f:a9:3f:ca:cf:f9:f3:e9:2c:c0:5b:b4:cd:a9:82:43:e3:
         5d:2f:3d:0b
-----BEGIN CERTIFICATE-----
MIIEJjCCAw6gAwIBAgIEEAAA2DANBgkqhkiG9w0BAQsFADBEMQswCQYDVQQGEwJE
RTEPMA0GA1UECAwGSGVzc2VuMRQwEgYDVQQKDAtwcml2YWN5aWRlYTEOMAwGA1UE
AwwFQ0EwMDEwHhcNMTkwNTA3MTMyMTQ3WhcNMjAwNTA2MTMyMTQ3WjBUMQswCQYD
VQQGEwJERTEPMA0GA1UECAwGSGVzc2VuMRQwEgYDVQQKDAtwcml2YWN5aWRlYTEe
MBwGA1UEAwwVcmVxdWVzdGVyLmxvY2FsZG9tYWluMIIBIjANBgkqhkiG9w0BAQEF
AAOCAQ8AMIIBCgKCAQEAzb4UT/rOAT9CIhsdnK/dktJ/22y3PjlDQ2sTA/EF9Ad0
vHZpKAuvGY7X/OPNxljyyn8IbVP8BwJEJMa0NEyMBP4zDkDiILoCc1r39U9jbszG
tt9UHTc5fVE2Jl+93D+oi2uirrad1iHn30G4eigqaEjKqC3t4elGXlpybbSEOIeR
/ZQRCyiExsIvKvsB+TZ6CXXRM4g8c0FbyL+UiXCh8MC5LlBTHrEXZGn0LYHgqQ0O
Mum6VYqF8RtvSXm0f4jDDT5UiJs9HziMBPPuamMr9cbbtIOqxHhBOn1L4cg+ccob
YVnqxsTKMl7J6b8SKebGw2P+oFXaevFgmE0m7fpwLQIDAQABo4IBDjCCAQowCwYD
VR0PBAQDAgWgMAkGA1UdEwQCMAAwEQYJYIZIAYb4QgEBBAQDAgZAMDMGCWCGSAGG
+EIBDQQmFiRPcGVuU1NMIEdlbmVyYXRlZCBTZXJ2ZXIgQ2VydGlmaWNhdGUwHQYD
VR0OBBYEFFM/7V0JB7Nle6tFySRbCXeACpbtMHQGA1UdIwRtMGuAFPSnwMyRRq9k
85HyJ/jIsm+KhzJzoUikRjBEMQswCQYDVQQGEwJERTEPMA0GA1UECAwGSGVzc2Vu
MRQwEgYDVQQKDAtwcml2YWN5aWRlYTEOMAwGA1UEAwwFQ0EwMDGCCQD7yOusg80S
BzATBgNVHSUEDDAKBggrBgEFBQcDATANBgkqhkiG9w0BAQsFAAOCAQEAZ+1d2cs+
GBq5DVpxy8lsNHl4tc8cYkCRa4CsVo1HHAaZqOoOBquPXg27ejz+n7o29J7+g17o
gI4028dSwX96oTOjn3eI338gciX/99PsOE3wVhWKsJ5q+s6tUq/Fua3d1gFQ9739
IgVr6q5t6LfMWT1mdwwSyAmd41ffMHqBzrMOIDv7cC+APAVXkVEs6GgqHyyH3GKL
j1zgAM4LQGbrS8ZQxxlS93JMxcmUVu7nF47zLwKr2XFjxUEn/pYEwotCiTprG17m
OnKHnU/XhtmoVM4f1DUenOSLz4wFv0UT6eLtaYybbbGXuYa+Jh+pP8rP+fPpLMBb
tM2pgkPjXS89Cw==
-----END CERTIFICATE-----
