Certificate:
    Data:
        Version: 3 (0x2)
        Serial Number: 268435667 (0x100000d3)
    Signature Algorithm: sha256WithRSAEncryption
        Issuer: C=DE, ST=Hessen, O=privacyidea, CN=CA001
        Validity
            Not Before: May  7 12:47:42 2019 GMT
            Not After : May  6 12:47:42 2020 GMT
        Subject: CN=Steve Test/emailAddress=steve@openssl.org
        Subject Public Key Info:
            Public Key Algorithm: rsaEncryption
                Public-Key: (2048 bit)
                Modulus:
                    00:d2:81:89:20:51:48:0f:73:f4:11:32:24:d5:1f:
                    1c:fd:5c:f5:b6:e6:c5:f0:52:81:dc:d2:af:66:4a:
                    7c:93:31:61:5c:af:d1:6d:06:70:03:60:7c:72:0c:
                    88:dd:49:cd:9e:02:6c:d2:5a:d7:53:0f:f3:da:be:
                    69:64:b5:0f:0c:00:e3:b3:50:47:a3:b3:9b:ba:13:
                    50:d6:58:5a:4b:ab:39:e0:11:ca:0a:27:67:03:78:
                    22:66:6d:92:1e:1b:5c:49:ae:e6:6b:d1:8e:3b:9d:
                    06:d3:c6:ac:4d:53:43:10:ab:e8:96:c1:87:82:97:
                    99:8f:20:d3:99:12:37:31:84:e1:8a:ff:29:03:5f:
                    22:90:3e:7f:9b:e0:20:c1:ad:dc:ae:4c:39:1a:31:
                    96:17:02:8c:b2:d9:b4:0d:20:12:9b:7d:86:54:fd:
                    33:fd:c1:2a:62:46:f8:60:96:cf:6e:01:6f:22:df:
                    13:47:e7:97:ec:05:72:23:a3:62:f8:fa:ef:ac:9c:
                    72:f0:37:cb:2f:37:cf:90:a8:27:51:86:c6:d7:78:
                    08:8f:7e:25:a2:15:70:a2:fb:1c:b6:15:5e:a0:97:
                    8b:81:4c:09:28:8a:27:3b:94:bc:71:db:5b:71:37:
                    9a:2b:16:e0:6f:b5:c9:f5:4b:4f:20:ba:65:cf:af:
                    ad:ad
                Exponent: 65537 (0x10001)
        X509v3 extensions:
            X509v3 Key Usage: 
                Digital Signature, Key Encipherment
            X509v3 Basic Constraints: 
                CA:FALSE
            Netscape Cert Type: 
                SSL Server
            Netscape Comment: 
                OpenSSL Generated Server Certificate
            X509v3 Subject Key Identifier: 
                E5:25:6D:3E:AF:0D:DD:3F:4C:F2:45:19:39:D5:14:DB:7E:9C:C0:AD
            X509v3 Authority Key Identifier: 
                keyid:F4:A7:C0:CC:91:46:AF:64:F3:91:F2:27:F8:C8:B2:6F:8A:87:32:73
                DirName:/C=DE/ST=Hessen/O=privacyidea/CN=CA001
                serial:FB:C8:EB:AC:83:CD:12:07

            X509v3 Extended Key Usage: 
                TLS Web Server Authentication
    Signature Algorithm: sha256WithRSAEncryption
         aa:48:68:61:5d:39:da:af:0b:e6:ff:65:16:22:f7:aa:99:de:
         fa:c5:0b:f6:ac:23:f8:eb:5d:58:25:bb:0e:6c:70:6e:76:1c:
         2e:d4:8e:c3:92:e4:49:cf:2d:47:fb:8b:4b:3d:28:85:6c:60:
         e1:38:af:cd:27:de:1f:6c:c7:d1:43:46:c8:3a:1e:b9:79:22:
         95:23:f9:54:56:6d:47:1c:6b:07:bc:33:9c:0c:7e:50:6b:06:
         f4:b7:ce:71:dd:47:ec:37:69:46:76:fc:04:3e:c5:30:b7:9e:
         ee:70:54:3b:be:c2:34:0e:2c:71:43:63:ca:ec:76:38:e5:4f:
         a9:10:31:8c:64:f3:74:3d:0f:c6:47:c7:34:62:40:f3:48:6a:
         71:aa:91:b3:b4:32:77:32:4d:68:4f:54:9b:d0:b4:5e:39:87:
         7a:d9:4b:c0:96:1d:67:b9:e7:12:e6:47:30:a1:46:80:ee:bf:
         56:05:29:f2:c9:db:21:fc:78:2c:02:c5:b0:a2:86:93:5a:b4:
         1f:e0:b8:8e:78:96:fe:6d:26:6a:3d:2d:dd:57:af:4e:5f:23:
         43:61:38:89:e8:6f:6b:e8:f7:7d:d8:4c:ff:10:c1:30:98:1e:
         ca:14:58:79:12:cc:20:41:12:62:42:f0:e2:de:73:1b:4e:38:
         5b:77:2d:76
-----BEGIN CERTIFICATE-----
MIIECTCCAvGgAwIBAgIEEAAA0zANBgkqhkiG9w0BAQsFADBEMQswCQYDVQQGEwJE
RTEPMA0GA1UECAwGSGVzc2VuMRQwEgYDVQQKDAtwcml2YWN5aWRlYTEOMAwGA1UE
AwwFQ0EwMDEwHhcNMTkwNTA3MTI0NzQyWhcNMjAwNTA2MTI0NzQyWjA3MRMwEQYD
VQQDDApTdGV2ZSBUZXN0MSAwHgYJKoZIhvcNAQkBFhFzdGV2ZUBvcGVuc3NsLm9y
ZzCCASIwDQYJKoZIhvcNAQEBBQADggEPADCCAQoCggEBANKBiSBRSA9z9BEyJNUf
HP1c9bbmxfBSgdzSr2ZKfJMxYVyv0W0GcANgfHIMiN1JzZ4CbNJa11MP89q+aWS1
DwwA47NQR6Ozm7oTUNZYWkurOeARygonZwN4ImZtkh4bXEmu5mvRjjudBtPGrE1T
QxCr6JbBh4KXmY8g05kSNzGE4Yr/KQNfIpA+f5vgIMGt3K5MORoxlhcCjLLZtA0g
Ept9hlT9M/3BKmJG+GCWz24BbyLfE0fnl+wFciOjYvj676yccvA3yy83z5CoJ1GG
xtd4CI9+JaIVcKL7HLYVXqCXi4FMCSiKJzuUvHHbW3E3misW4G+1yfVLTyC6Zc+v
ra0CAwEAAaOCAQ4wggEKMAsGA1UdDwQEAwIFoDAJBgNVHRMEAjAAMBEGCWCGSAGG
+EIBAQQEAwIGQDAzBglghkgBhvhCAQ0EJhYkT3BlblNTTCBHZW5lcmF0ZWQgU2Vy
dmVyIENlcnRpZmljYXRlMB0GA1UdDgQWBBTlJW0+rw3dP0zyRRk51RTbfpzArTB0
BgNVHSMEbTBrgBT0p8DMkUavZPOR8if4yLJviocyc6FIpEYwRDELMAkGA1UEBhMC
REUxDzANBgNVBAgMBkhlc3NlbjEUMBIGA1UECgwLcHJpdmFjeWlkZWExDjAMBgNV
BAMMBUNBMDAxggkA+8jrrIPNEgcwEwYDVR0lBAwwCgYIKwYBBQUHAwEwDQYJKoZI
hvcNAQELBQADggEBAKpIaGFdOdqvC+b/ZRYi96qZ3vrFC/asI/jrXVgluw5scG52
HC7UjsOS5EnPLUf7i0s9KIVsYOE4r80n3h9sx9FDRsg6Hrl5IpUj+VRWbUccawe8
M5wMflBrBvS3znHdR+w3aUZ2/AQ+xTC3nu5wVDu+wjQOLHFDY8rsdjjlT6kQMYxk
83Q9D8ZHxzRiQPNIanGqkbO0MncyTWhPVJvQtF45h3rZS8CWHWe55xLmRzChRoDu
v1YFKfLJ2yH8eCwCxbCihpNatB/guI54lv5tJmo9Ld1Xr05fI0NhOInob2vo933Y
TP8QwTCYHsoUWHkSzCBBEmJC8OLecxtOOFt3LXY=
-----END CERTIFICATE-----
