Certificate:
    Data:
        Version: 3 (0x2)
        Serial Number: 268435664 (0x100000d0)
    Signature Algorithm: sha256WithRSAEncryption
        Issuer: C=DE, ST=Hessen, O=privacyidea, CN=CA001
        Validity
            Not Before: May  7 12:45:48 2019 GMT
            Not After : May  6 12:45:48 2020 GMT
        Subject: C=DE, ST=Hessen, O=privacyidea, CN=requester.localdomain
        Subject Public Key Info:
            Public Key Algorithm: rsaEncryption
                Public-Key: (2048 bit)
                Modulus:
                    00:cd:be:14:4f:fa:ce:01:3f:42:22:1b:1d:9c:af:
                    dd:92:d2:7f:db:6c:b7:3e:39:43:43:6b:13:03:f1:
                    05:f4:07:74:bc:76:69:28:0b:af:19:8e:d7:fc:e3:
                    cd:c6:58:f2:ca:7f:08:6d:53:fc:07:02:44:24:c6:
                    b4:34:4c:8c:04:fe:33:0e:40:e2:20:ba:02:73:5a:
                    f7:f5:4f:63:6e:cc:c6:b6:df:54:1d:37:39:7d:51:
                    36:26:5f:bd:dc:3f:a8:8b:6b:a2:ae:b6:9d:d6:21:
                    e7:df:41:b8:7a:28:2a:68:48:ca:a8:2d:ed:e1:e9:
                    46:5e:5a:72:6d:b4:84:38:87:91:fd:94:11:0b:28:
                    84:c6:c2:2f:2a:fb:01:f9:36:7a:09:75:d1:33:88:
                    3c:73:41:5b:c8:bf:94:89:70:a1:f0:c0:b9:2e:50:
                    53:1e:b1:17:64:69:f4:2d:81:e0:a9:0d:0e:32:e9:
                    ba:55:8a:85:f1:1b:6f:49:79:b4:7f:88:c3:0d:3e:
                    54:88:9b:3d:1f:38:8c:04:f3:ee:6a:63:2b:f5:c6:
                    db:b4:83:aa:c4:78:41:3a:7d:4b:e1:c8:3e:71:ca:
                    1b:61:59:ea:c6:c4:ca:32:5e:c9:e9:bf:12:29:e6:
                    c6:c3:63:fe:a0:55:da:7a:f1:60:98:4d:26:ed:fa:
                    70:2d
                Exponent: 65537 (0x10001)
        X509v3 extensions:
            X509v3 Key Usage: 
                Digital Signature, Key Encipherment
            X509v3 Basic Constraints: 
                CA:FALSE
            Netscape Cert Type: 
                SSL Server
            Netscape Comment: 
                OpenSSL Generated Server Certificate
            X509v3 Subject Key Identifier: 
                53:3F:ED:5D:09:07:B3:65:7B:AB:45:C9:24:5B:09:77:80:0A:96:ED
            X509v3 Authority Key Identifier: 
                keyid:F4:A7:C0:CC:91:46:AF:64:F3:91:F2:27:F8:C8:B2:6F:8A:87:32:73
                DirName:/C=DE/ST=Hessen/O=privacyidea/CN=CA001
                serial:FB:C8:EB:AC:83:CD:12:07

            X509v3 Extended Key Usage: 
                TLS Web Server Authentication
    Signature Algorithm: sha256WithRSAEncryption
         44:9c:c8:24:e5:63:3d:47:97:bc:1b:e3:8c:db:9a:8b:7f:58:
         6a:ef:50:bf:e6:48:3d:ea:43:69:b7:f2:82:f7:c0:99:3e:c9:
         f9:ec:c7:54:c0:13:a6:5b:0e:7f:03:e8:70:23:dc:84:4f:43:
         3d:d9:7d:52:26:5c:2b:f4:02:db:55:1a:9b:c5:98:31:b3:51:
         69:e8:8e:8d:ac:90:68:ef:ff:32:33:6a:75:1f:38:1b:43:aa:
         0a:fa:30:51:57:85:75:a5:f9:46:6d:7e:64:2b:c6:e4:9d:c7:
         05:b2:31:7e:0a:52:f0:22:61:f0:c5:db:65:88:f9:32:b8:b0:
         f2:d7:64:8b:69:52:3b:e4:55:10:af:a6:c1:49:9e:74:71:c2:
         7e:74:4d:be:dd:e7:92:65:bb:6e:bb:8f:15:d1:5a:8e:cc:97:
         1e:7c:8c:18:6f:1e:ac:e8:79:73:07:6d:08:a0:92:d8:79:ce:
         dd:b6:f9:04:93:82:a8:a6:2e:c8:68:07:9d:1a:2b:ec:c0:fc:
         ea:8a:4c:40:e0:d6:7c:5b:a3:6c:65:87:a0:a6:46:e9:4a:f1:
         01:99:3a:3a:2f:3a:63:bc:2a:27:10:a5:52:2d:b1:39:07:ad:
         7d:8f:ee:fd:f9:71:ba:86:f2:21:82:34:7b:f3:02:a1:4f:69:
         ec:e1:29:bf
-----BEGIN CERTIFICATE-----
MIIEJjCCAw6gAwIBAgIEEAAA0DANBgkqhkiG9w0BAQsFADBEMQswCQYDVQQGEwJE
RTEPMA0GA1UECAwGSGVzc2VuMRQwEgYDVQQKDAtwcml2YWN5aWRlYTEOMAwGA1UE
AwwFQ0EwMDEwHhcNMTkwNTA3MTI0NTQ4WhcNMjAwNTA2MTI0NTQ4WjBUMQswCQYD
VQQGEwJERTEPMA0GA1UECAwGSGVzc2VuMRQwEgYDVQQKDAtwcml2YWN5aWRlYTEe
MBwGA1UEAwwVcmVxdWVzdGVyLmxvY2FsZG9tYWluMIIBIjANBgkqhkiG9w0BAQEF
AAOCAQ8AMIIBCgKCAQEAzb4UT/rOAT9CIhsdnK/dktJ/22y3PjlDQ2sTA/EF9Ad0
vHZpKAuvGY7X/OPNxljyyn8IbVP8BwJEJMa0NEyMBP4zDkDiILoCc1r39U9jbszG
tt9UHTc5fVE2Jl+93D+oi2uirrad1iHn30G4eigqaEjKqC3t4elGXlpybbSEOIeR
/ZQRCyiExsIvKvsB+TZ6CXXRM4g8c0FbyL+UiXCh8MC5LlBTHrEXZGn0LYHgqQ0O
Mum6VYqF8RtvSXm0f4jDDT5UiJs9HziMBPPuamMr9cbbtIOqxHhBOn1L4cg+ccob
YVnqxsTKMl7J6b8SKebGw2P+oFXaevFgmE0m7fpwLQIDAQABo4IBDjCCAQowCwYD
VR0PBAQDAgWgMAkGA1UdEwQCMAAwEQYJYIZIAYb4QgEBBAQDAgZAMDMGCWCGSAGG
+EIBDQQmFiRPcGVuU1NMIEdlbmVyYXRlZCBTZXJ2ZXIgQ2VydGlmaWNhdGUwHQYD
VR0OBBYEFFM/7V0JB7Nle6tFySRbCXeACpbtMHQGA1UdIwRtMGuAFPSnwMyRRq9k
85HyJ/jIsm+KhzJzoUikRjBEMQswCQYDVQQGEwJERTEPMA0GA1UECAwGSGVzc2Vu
MRQwEgYDVQQKDAtwcml2YWN5aWRlYTEOMAwGA1UEAwwFQ0EwMDGCCQD7yOusg80S
BzATBgNVHSUEDDAKBggrBgEFBQcDATANBgkqhkiG9w0BAQsFAAOCAQEARJzIJOVj
PUeXvBvjjNuai39Yau9Qv+ZIPepDabfygvfAmT7J+ezHVMATplsOfwPocCPchE9D
Pdl9UiZcK/QC21Uam8WYMbNRaeiOjayQaO//MjNqdR84G0OqCvowUVeFdaX5Rm1+
ZCvG5J3HBbIxfgpS8CJh8MXbZYj5Mriw8tdki2lSO+RVEK+mwUmedHHCfnRNvt3n
kmW7bruPFdFajsyXHnyMGG8erOh5cwdtCKCS2HnO3bb5BJOCqKYuyGgHnRor7MD8
6opMQODWfFujbGWHoKZG6UrxAZk6Oi86Y7wqJxClUi2xOQetfY/u/flxuobyIYI0
e/MCoU9p7OEpvw==
-----END CERTIFICATE-----
