Certificate:
    Data:
        Version: 3 (0x2)
        Serial Number: 268435668 (0x100000d4)
    Signature Algorithm: sha256WithRSAEncryption
        Issuer: C=DE, ST=Hessen, O=privacyidea, CN=CA001
        Validity
            Not Before: May  7 12:47:42 2019 GMT
            Not After : May 26 12:47:42 2021 GMT
        Subject: CN=Steve Test/emailAddress=steve@openssl.org
        Subject Public Key Info:
            Public Key Algorithm: rsaEncryption
                Public-Key: (2048 bit)
                Modulus:
                    00:d2:81:89:20:51:48:0f:73:f4:11:32:24:d5:1f:
                    1c:fd:5c:f5:b6:e6:c5:f0:52:81:dc:d2:af:66:4a:
                    7c:93:31:61:5c:af:d1:6d:06:70:03:60:7c:72:0c:
                    88:dd:49:cd:9e:02:6c:d2:5a:d7:53:0f:f3:da:be:
                    69:64:b5:0f:0c:00:e3:b3:50:47:a3:b3:9b:ba:13:
                    50:d6:58:5a:4b:ab:39:e0:11:ca:0a:27:67:03:78:
                    22:66:6d:92:1e:1b:5c:49:ae:e6:6b:d1:8e:3b:9d:
                    06:d3:c6:ac:4d:53:43:10:ab:e8:96:c1:87:82:97:
                    99:8f:20:d3:99:12:37:31:84:e1:8a:ff:29:03:5f:
                    22:90:3e:7f:9b:e0:20:c1:ad:dc:ae:4c:39:1a:31:
                    96:17:02:8c:b2:d9:b4:0d:20:12:9b:7d:86:54:fd:
                    33:fd:c1:2a:62:46:f8:60:96:cf:6e:01:6f:22:df:
                    13:47:e7:97:ec:05:72:23:a3:62:f8:fa:ef:ac:9c:
                    72:f0:37:cb:2f:37:cf:90:a8:27:51:86:c6:d7:78:
                    08:8f:7e:25:a2:15:70:a2:fb:1c:b6:15:5e:a0:97:
                    8b:81:4c:09:28:8a:27:3b:94:bc:71:db:5b:71:37:
                    9a:2b:16:e0:6f:b5:c9:f5:4b:4f:20:ba:65:cf:af:
                    ad:ad
                Exponent: 65537 (0x10001)
        X509v3 extensions:
            X509v3 Key Usage: 
                Digital Signature, Key Encipherment
            X509v3 Basic Constraints: 
                CA:FALSE
            Netscape Cert Type: 
                SSL Server
            Netscape Comment: 
                OpenSSL Generated Server Certificate
            X509v3 Subject Key Identifier: 
                E5:25:6D:3E:AF:0D:DD:3F:4C:F2:45:19:39:D5:14:DB:7E:9C:C0:AD
            X509v3 Authority Key Identifier: 
                keyid:F4:A7:C0:CC:91:46:AF:64:F3:91:F2:27:F8:C8:B2:6F:8A:87:32:73
                DirName:/C=DE/ST=Hessen/O=privacyidea/CN=CA001
                serial:FB:C8:EB:AC:83:CD:12:07

            X509v3 Extended Key Usage: 
                TLS Web Server Authentication
    Signature Algorithm: sha256WithRSAEncryption
         83:93:21:d0:ba:f4:17:71:d8:51:be:b6:3f:30:0e:a4:58:85:
         8a:8f:f9:73:59:39:05:9e:7e:e9:8c:f2:3a:c1:0b:a9:94:88:
         e3:53:43:f1:36:a4:64:ec:61:68:c5:76:66:9f:cf:1c:34:a4:
         e9:14:a4:78:4c:06:33:8b:2e:df:ac:d0:15:cb:85:80:aa:89:
         a3:9b:98:93:02:d8:ba:a8:e7:78:a1:81:ce:66:72:8d:07:19:
         65:dc:a0:ed:8f:da:7b:0e:ef:33:c5:82:79:38:e7:39:af:53:
         80:aa:cb:23:91:a4:8e:25:ec:e8:22:64:46:3c:c0:f0:a8:d2:
         a1:79:de:bf:40:8f:ae:27:de:3d:ea:b6:3b:27:e2:cd:90:fc:
         32:45:d1:75:4a:f1:75:07:b5:a0:96:09:6e:ed:aa:44:7d:42:
         8d:af:7f:5b:2b:b0:06:7c:50:ca:40:29:d0:db:43:1d:82:0d:
         e6:21:e5:b0:49:01:77:c9:54:b7:0a:c7:db:f3:20:e1:37:62:
         2a:b9:3b:c2:cc:07:8c:8a:35:29:26:88:46:86:1d:00:4d:16:
         ad:3f:ae:f6:6a:60:78:ec:89:64:b1:a2:e8:b8:15:70:3f:06:
         e8:d7:63:6d:9a:94:7f:ab:06:a1:ed:85:d7:5e:04:07:9e:25:
         45:54:d1:a0
-----BEGIN CERTIFICATE-----
MIIECTCCAvGgAwIBAgIEEAAA1DANBgkqhkiG9w0BAQsFADBEMQswCQYDVQQGEwJE
RTEPMA0GA1UECAwGSGVzc2VuMRQwEgYDVQQKDAtwcml2YWN5aWRlYTEOMAwGA1UE
AwwFQ0EwMDEwHhcNMTkwNTA3MTI0NzQyWhcNMjEwNTI2MTI0NzQyWjA3MRMwEQYD
VQQDDApTdGV2ZSBUZXN0MSAwHgYJKoZIhvcNAQkBFhFzdGV2ZUBvcGVuc3NsLm9y
ZzCCASIwDQYJKoZIhvcNAQEBBQADggEPADCCAQoCggEBANKBiSBRSA9z9BEyJNUf
HP1c9bbmxfBSgdzSr2ZKfJMxYVyv0W0GcANgfHIMiN1JzZ4CbNJa11MP89q+aWS1
DwwA47NQR6Ozm7oTUNZYWkurOeARygonZwN4ImZtkh4bXEmu5mvRjjudBtPGrE1T
QxCr6JbBh4KXmY8g05kSNzGE4Yr/KQNfIpA+f5vgIMGt3K5MORoxlhcCjLLZtA0g
Ept9hlT9M/3BKmJG+GCWz24BbyLfE0fnl+wFciOjYvj676yccvA3yy83z5CoJ1GG
xtd4CI9+JaIVcKL7HLYVXqCXi4FMCSiKJzuUvHHbW3E3misW4G+1yfVLTyC6Zc+v
ra0CAwEAAaOCAQ4wggEKMAsGA1UdDwQEAwIFoDAJBgNVHRMEAjAAMBEGCWCGSAGG
+EIBAQQEAwIGQDAzBglghkgBhvhCAQ0EJhYkT3BlblNTTCBHZW5lcmF0ZWQgU2Vy
dmVyIENlcnRpZmljYXRlMB0GA1UdDgQWBBTlJW0+rw3dP0zyRRk51RTbfpzArTB0
BgNVHSMEbTBrgBT0p8DMkUavZPOR8if4yLJviocyc6FIpEYwRDELMAkGA1UEBhMC
REUxDzANBgNVBAgMBkhlc3NlbjEUMBIGA1UECgwLcHJpdmFjeWlkZWExDjAMBgNV
BAMMBUNBMDAxggkA+8jrrIPNEgcwEwYDVR0lBAwwCgYIKwYBBQUHAwEwDQYJKoZI
hvcNAQELBQADggEBAIOTIdC69Bdx2FG+tj8wDqRYhYqP+XNZOQWefumM8jrBC6mU
iONTQ/E2pGTsYWjFdmafzxw0pOkUpHhMBjOLLt+s0BXLhYCqiaObmJMC2Lqo53ih
gc5mco0HGWXcoO2P2nsO7zPFgnk45zmvU4CqyyORpI4l7OgiZEY8wPCo0qF53r9A
j64n3j3qtjsn4s2Q/DJF0XVK8XUHtaCWCW7tqkR9Qo2vf1srsAZ8UMpAKdDbQx2C
DeYh5bBJAXfJVLcKx9vzIOE3Yiq5O8LMB4yKNSkmiEaGHQBNFq0/rvZqYHjsiWSx
oui4FXA/BujXY22alH+rBqHthddeBAeeJUVU0aA=
-----END CERTIFICATE-----
