Certificate:
    Data:
        Version: 3 (0x2)
        Serial Number: 268435674 (0x100000da)
    Signature Algorithm: sha256WithRSAEncryption
        Issuer: C=DE, ST=Hessen, O=privacyidea, CN=CA001
        Validity
            Not Before: May  7 13:23:44 2019 GMT
            Not After : May  6 13:23:44 2020 GMT
        Subject: C=DE, ST=Hessen, O=privacyidea, CN=usercert
        Subject Public Key Info:
            Public Key Algorithm: rsaEncryption
                Public-Key: (2048 bit)
                Modulus:
                    00:dc:2f:d1:5f:29:97:d4:7c:c3:53:c8:30:bd:4b:
                    67:70:2c:24:6b:b8:5e:eb:21:7a:48:12:56:7c:81:
                    5c:48:75:b6:68:eb:f6:f2:98:4e:50:51:d1:7f:6c:
                    73:f3:0a:a7:ae:be:48:5e:e5:d6:e1:d9:2a:7c:32:
                    6e:4e:fd:08:f6:5a:54:49:23:73:c3:b9:07:18:d1:
                    ef:b3:ac:f8:8a:dc:94:96:a4:90:3a:8e:74:df:e6:
                    0d:37:1b:bd:5b:b7:25:1a:56:39:da:6f:91:aa:5e:
                    1c:74:f3:f9:7c:14:01:83:12:65:76:c7:bb:fe:36:
                    5b:95:e9:72:65:83:ed:3e:98:30:71:fa:87:dd:a3:
                    36:5a:30:03:2e:26:e0:61:d1:bf:02:3f:b6:06:1f:
                    4a:89:28:1c:5c:a2:ff:4e:be:94:e6:8c:e0:da:82:
                    f1:9d:29:32:48:30:73:b4:04:f6:42:1e:be:f7:e2:
                    32:32:27:3c:9d:89:2f:70:3e:85:9a:6f:5c:c5:09:
                    c0:8c:32:2f:72:22:c9:d2:95:1f:b6:ac:72:60:72:
                    b7:82:4d:6b:ce:5b:e3:00:d0:d2:2f:58:c6:e0:10:
                    e5:51:ca:4d:3b:2e:e6:7e:ab:84:d6:56:f1:93:35:
                    a0:93:64:26:81:75:2f:91:b5:16:06:38:0b:db:cc:
                    2d:07
                Exponent: 65537 (0x10001)
        X509v3 extensions:
            X509v3 Key Usage: 
                Digital Signature, Key Encipherment
            X509v3 Basic Constraints: 
                CA:FALSE
            Netscape Cert Type: 
                SSL Server
            Netscape Comment: 
                OpenSSL Generated Server Certificate
            X509v3 Subject Key Identifier: 
                FC:14:D1:F0:4B:8D:00:90:F2:F5:B8:71:9E:4E:97:C3:92:54:AD:0B
            X509v3 Authority Key Identifier: 
                keyid:F4:A7:C0:CC:91:46:AF:64:F3:91:F2:27:F8:C8:B2:6F:8A:87:32:73
                DirName:/C=DE/ST=Hessen/O=privacyidea/CN=CA001
                serial:FB:C8:EB:AC:83:CD:12:07

            X509v3 Extended Key Usage: 
                TLS Web Server Authentication
    Signature Algorithm: sha256WithRSAEncryption
         31:e8:9e:91:f5:d9:f3:7e:14:05:a9:00:6c:5a:ba:b9:75:ec:
         a9:e6:94:ba:b4:a9:61:88:7a:01:ab:b3:43:5c:44:ec:f3:85:
         ee:47:a6:4f:a0:e1:a5:60:ed:1d:56:a5:ce:4e:28:cc:33:c7:
         74:8a:d3:cd:ed:3b:e7:f9:2b:14:e7:eb:9b:5e:6e:88:79:b9:
         22:e9:05:35:6f:22:1c:b2:e1:81:8c:44:28:3e:32:1a:78:8f:
         82:2c:80:cb:8a:d7:ad:e5:a0:4a:d5:c0:43:3e:49:57:b4:79:
         50:7d:74:be:4c:92:bf:57:56:44:4b:05:3e:50:e6:63:dd:8d:
         23:4d:64:c8:75:9c:72:00:8b:5f:c1:6e:24:54:b1:e0:38:6e:
         70:7f:31:56:10:ce:69:62:a0:95:77:03:dc:43:9e:2a:9f:a3:
         cb:1f:b5:bf:71:a6:99:47:34:89:76:fa:2d:5d:72:83:6f:fd:
         8d:4a:71:92:e7:32:31:8f:90:93:98:38:34:17:37:8b:a4:d6:
         31:5a:25:fd:60:cc:2a:c7:ca:b0:af:6a:26:6e:d5:03:9e:36:
         cd:19:fb:1f:5e:a5:20:14:6b:a4:3b:38:c2:8d:43:a5:8b:8b:
         dc:ff:5f:03:1d:5a:78:78:6a:5c:45:5a:34:ba:54:f7:ba:07:
         78:aa:3f:25
-----BEGIN CERTIFICATE-----
MIIEGTCCAwGgAwIBAgIEEAAA2jANBgkqhkiG9w0BAQsFADBEMQswCQYDVQQGEwJE
RTEPMA0GA1UECAwGSGVzc2VuMRQwEgYDVQQKDAtwcml2YWN5aWRlYTEOMAwGA1UE
AwwFQ0EwMDEwHhcNMTkwNTA3MTMyMzQ0WhcNMjAwNTA2MTMyMzQ0WjBHMQswCQYD
VQQGEwJERTEPMA0GA1UECAwGSGVzc2VuMRQwEgYDVQQKDAtwcml2YWN5aWRlYTER
MA8GA1UEAwwIdXNlcmNlcnQwggEiMA0GCSqGSIb3DQEBAQUAA4IBDwAwggEKAoIB
AQDcL9FfKZfUfMNTyDC9S2dwLCRruF7rIXpIElZ8gVxIdbZo6/bymE5QUdF/bHPz
Cqeuvkhe5dbh2Sp8Mm5O/Qj2WlRJI3PDuQcY0e+zrPiK3JSWpJA6jnTf5g03G71b
tyUaVjnab5GqXhx08/l8FAGDEmV2x7v+NluV6XJlg+0+mDBx+ofdozZaMAMuJuBh
0b8CP7YGH0qJKBxcov9OvpTmjODagvGdKTJIMHO0BPZCHr734jIyJzydiS9wPoWa
b1zFCcCMMi9yIsnSlR+2rHJgcreCTWvOW+MA0NIvWMbgEOVRyk07LuZ+q4TWVvGT
NaCTZCaBdS+RtRYGOAvbzC0HAgMBAAGjggEOMIIBCjALBgNVHQ8EBAMCBaAwCQYD
VR0TBAIwADARBglghkgBhvhCAQEEBAMCBkAwMwYJYIZIAYb4QgENBCYWJE9wZW5T
U0wgR2VuZXJhdGVkIFNlcnZlciBDZXJ0aWZpY2F0ZTAdBgNVHQ4EFgQU/BTR8EuN
AJDy9bhxnk6Xw5JUrQswdAYDVR0jBG0wa4AU9KfAzJFGr2TzkfIn+Miyb4qHMnOh
SKRGMEQxCzAJBgNVBAYTAkRFMQ8wDQYDVQQIDAZIZXNzZW4xFDASBgNVBAoMC3By
aXZhY3lpZGVhMQ4wDAYDVQQDDAVDQTAwMYIJAPvI66yDzRIHMBMGA1UdJQQMMAoG
CCsGAQUFBwMBMA0GCSqGSIb3DQEBCwUAA4IBAQAx6J6R9dnzfhQFqQBsWrq5deyp
5pS6tKlhiHoBq7NDXETs84XuR6ZPoOGlYO0dVqXOTijMM8d0itPN7Tvn+SsU5+ub
Xm6Iebki6QU1byIcsuGBjEQoPjIaeI+CLIDLitet5aBK1cBDPklXtHlQfXS+TJK/
V1ZESwU+UOZj3Y0jTWTIdZxyAItfwW4kVLHgOG5wfzFWEM5pYqCVdwPcQ54qn6PL
H7W/caaZRzSJdvotXXKDb/2NSnGS5zIxj5CTmDg0FzeLpNYxWiX9YMwqx8qwr2om
btUDnjbNGfsfXqUgFGukOzjCjUOli4vc/18DHVp4eGpcRVo0ulT3ugd4qj8l
-----END CERTIFICATE-----
