Certificate:
    Data:
        Version: 3 (0x2)
        Serial Number: 268435677 (0x100000dd)
    Signature Algorithm: sha256WithRSAEncryption
        Issuer: C=DE, ST=Hessen, O=privacyidea, CN=CA001
        Validity
            Not Before: May  7 13:26:27 2019 GMT
            Not After : May  6 13:26:27 2020 GMT
        Subject: C=DE, ST=Hessen, O=privacyidea, CN=requester.localdomain
        Subject Public Key Info:
            Public Key Algorithm: rsaEncryption
                Public-Key: (2048 bit)
                Modulus:
                    00:cd:be:14:4f:fa:ce:01:3f:42:22:1b:1d:9c:af:
                    dd:92:d2:7f:db:6c:b7:3e:39:43:43:6b:13:03:f1:
                    05:f4:07:74:bc:76:69:28:0b:af:19:8e:d7:fc:e3:
                    cd:c6:58:f2:ca:7f:08:6d:53:fc:07:02:44:24:c6:
                    b4:34:4c:8c:04:fe:33:0e:40:e2:20:ba:02:73:5a:
                    f7:f5:4f:63:6e:cc:c6:b6:df:54:1d:37:39:7d:51:
                    36:26:5f:bd:dc:3f:a8:8b:6b:a2:ae:b6:9d:d6:21:
                    e7:df:41:b8:7a:28:2a:68:48:ca:a8:2d:ed:e1:e9:
                    46:5e:5a:72:6d:b4:84:38:87:91:fd:94:11:0b:28:
                    84:c6:c2:2f:2a:fb:01:f9:36:7a:09:75:d1:33:88:
                    3c:73:41:5b:c8:bf:94:89:70:a1:f0:c0:b9:2e:50:
                    53:1e:b1:17:64:69:f4:2d:81:e0:a9:0d:0e:32:e9:
                    ba:55:8a:85:f1:1b:6f:49:79:b4:7f:88:c3:0d:3e:
                    54:88:9b:3d:1f:38:8c:04:f3:ee:6a:63:2b:f5:c6:
                    db:b4:83:aa:c4:78:41:3a:7d:4b:e1:c8:3e:71:ca:
                    1b:61:59:ea:c6:c4:ca:32:5e:c9:e9:bf:12:29:e6:
                    c6:c3:63:fe:a0:55:da:7a:f1:60:98:4d:26:ed:fa:
                    70:2d
                Exponent: 65537 (0x10001)
        X509v3 extensions:
            X509v3 Key Usage: 
                Digital Signature, Key Encipherment
            X509v3 Basic Constraints: 
                CA:FALSE
            Netscape Cert Type: 
                SSL Server
            Netscape Comment: 
                OpenSSL Generated Server Certificate
            X509v3 Subject Key Identifier: 
                53:3F:ED:5D:09:07:B3:65:7B:AB:45:C9:24:5B:09:77:80:0A:96:ED
            X509v3 Authority Key Identifier: 
                keyid:F4:A7:C0:CC:91:46:AF:64:F3:91:F2:27:F8:C8:B2:6F:8A:87:32:73
                DirName:/C=DE/ST=Hessen/O=privacyidea/CN=CA001
                serial:FB:C8:EB:AC:83:CD:12:07

            X509v3 Extended Key Usage: 
                TLS Web Server Authentication
    Signature Algorithm: sha256WithRSAEncryption
         8a:fd:0c:32:58:88:76:a7:f9:0c:a8:7a:66:84:56:72:13:55:
         ca:b6:a3:ed:09:3b:04:91:f4:94:70:6a:00:7c:30:8f:fc:32:
         16:12:c2:06:5e:2d:44:b5:f6:d3:f8:3a:c7:a8:dd:6d:a0:47:
         b7:1f:7f:b3:48:5e:11:fd:8c:f8:92:90:b4:dc:c9:4b:1f:c0:
         25:d8:18:1c:2b:92:90:2c:ea:32:20:15:e9:5c:df:0d:84:af:
         4e:cd:88:8a:97:06:b4:ea:be:3f:ad:78:1a:77:72:41:69:01:
         0f:ef:a2:a8:e3:41:46:d8:c9:3a:e7:64:3c:ad:ac:f4:4a:f7:
         a5:0c:39:8a:bd:9a:1e:73:7d:48:98:19:2d:41:73:de:4d:6f:
         f5:b5:77:cb:fe:40:d8:1e:14:fc:28:6b:c7:82:12:9a:d0:3f:
         12:6c:fa:b5:a0:3c:a2:65:1f:ea:d1:d7:6f:2a:c1:69:b7:b5:
         00:7b:7c:09:36:c5:e0:56:05:55:df:44:5e:f4:b9:14:7a:88:
         cc:8b:12:ee:ce:a9:b3:8c:d5:cf:44:e7:d6:ac:dd:15:5b:c6:
         6a:6e:1f:d3:af:b0:c3:3b:c0:5d:d3:cc:b9:8e:62:02:8f:20:
         d9:02:d0:f2:ea:23:4f:da:c5:6c:6b:5f:40:6d:3d:b0:a5:32:
         90:72:b6:23
-----BEGIN CERTIFICATE-----
MIIEJjCCAw6gAwIBAgIEEAAA3TANBgkqhkiG9w0BAQsFADBEMQswCQYDVQQGEwJE
RTEPMA0GA1UECAwGSGVzc2VuMRQwEgYDVQQKDAtwcml2YWN5aWRlYTEOMAwGA1UE
AwwFQ0EwMDEwHhcNMTkwNTA3MTMyNjI3WhcNMjAwNTA2MTMyNjI3WjBUMQswCQYD
VQQGEwJERTEPMA0GA1UECAwGSGVzc2VuMRQwEgYDVQQKDAtwcml2YWN5aWRlYTEe
MBwGA1UEAwwVcmVxdWVzdGVyLmxvY2FsZG9tYWluMIIBIjANBgkqhkiG9w0BAQEF
AAOCAQ8AMIIBCgKCAQEAzb4UT/rOAT9CIhsdnK/dktJ/22y3PjlDQ2sTA/EF9Ad0
vHZpKAuvGY7X/OPNxljyyn8IbVP8BwJEJMa0NEyMBP4zDkDiILoCc1r39U9jbszG
tt9UHTc5fVE2Jl+93D+oi2uirrad1iHn30G4eigqaEjKqC3t4elGXlpybbSEOIeR
/ZQRCyiExsIvKvsB+TZ6CXXRM4g8c0FbyL+UiXCh8MC5LlBTHrEXZGn0LYHgqQ0O
Mum6VYqF8RtvSXm0f4jDDT5UiJs9HziMBPPuamMr9cbbtIOqxHhBOn1L4cg+ccob
YVnqxsTKMl7J6b8SKebGw2P+oFXaevFgmE0m7fpwLQIDAQABo4IBDjCCAQowCwYD
VR0PBAQDAgWgMAkGA1UdEwQCMAAwEQYJYIZIAYb4QgEBBAQDAgZAMDMGCWCGSAGG
+EIBDQQmFiRPcGVuU1NMIEdlbmVyYXRlZCBTZXJ2ZXIgQ2VydGlmaWNhdGUwHQYD
VR0OBBYEFFM/7V0JB7Nle6tFySRbCXeACpbtMHQGA1UdIwRtMGuAFPSnwMyRRq9k
85HyJ/jIsm+KhzJzoUikRjBEMQswCQYDVQQGEwJERTEPMA0GA1UECAwGSGVzc2Vu
MRQwEgYDVQQKDAtwcml2YWN5aWRlYTEOMAwGA1UEAwwFQ0EwMDGCCQD7yOusg80S
BzATBgNVHSUEDDAKBggrBgEFBQcDATANBgkqhkiG9w0BAQsFAAOCAQEAiv0MMliI
dqf5DKh6ZoRWchNVyraj7Qk7BJH0lHBqAHwwj/wyFhLCBl4tRLX20/g6x6jdbaBH
tx9/s0heEf2M+JKQtNzJSx/AJdgYHCuSkCzqMiAV6VzfDYSvTs2IipcGtOq+P614
GndyQWkBD++iqONBRtjJOudkPK2s9Er3pQw5ir2aHnN9SJgZLUFz3k1v9bV3y/5A
2B4U/Chrx4ISmtA/Emz6taA8omUf6tHXbyrBabe1AHt8CTbF4FYFVd9EXvS5FHqI
zIsS7s6ps4zVz0Tn1qzdFVvGam4f06+wwzvAXdPMuY5iAo8g2QLQ8uojT9rFbGtf
QG09sKUykHK2Iw==
-----END CERTIFICATE-----
